

HI-TECH Software PIC18 LITE Macro Assembler V9.80 build 11162 
                                                                                               Sun Apr 22 22:34:36 2012

HI-TECH Software Omniscient Code Generator (Lite mode) build 11162
     1  0000                     opt subtitle "HI-TECH Software Omniscient Code Generator (Lite mode) build 11162"
     2                           
     3                           opt pagewidth 120
     4                           
     5                           	opt lm
     6                           
     7                           	processor	18F2221
     8  0000                     porta	equ	0F80h
     9  0000                     portb	equ	0F81h
    10  0000                     portc	equ	0F82h
    11  0000                     portd	equ	0F83h
    12  0000                     porte	equ	0F84h
    13  0000                     lata	equ	0F89h
    14  0000                     latb	equ	0F8Ah
    15  0000                     latc	equ	0F8Bh
    16  0000                     latd	equ	0F8Ch
    17  0000                     late	equ	0F8Dh
    18  0000                     trisa	equ	0F92h
    19  0000                     trisb	equ	0F93h
    20  0000                     trisc	equ	0F94h
    21  0000                     trisd	equ	0F95h
    22  0000                     trise	equ	0F96h
    23  0000                     pie1	equ	0F9Dh
    24  0000                     pir1	equ	0F9Eh
    25  0000                     ipr1	equ	0F9Fh
    26  0000                     pie2	equ	0FA0h
    27  0000                     pir2	equ	0FA1h
    28  0000                     ipr2	equ	0FA2h
    29  0000                     t3con	equ	0FB1h
    30  0000                     tmr3l	equ	0FB2h
    31  0000                     tmr3h	equ	0FB3h
    32  0000                     ccp1con	equ	0FBDh
    33  0000                     ccpr1l	equ	0FBEh
    34  0000                     ccpr1h	equ	0FBFh
    35  0000                     adcon1	equ	0FC1h
    36  0000                     adcon0	equ	0FC2h
    37  0000                     adresl	equ	0FC3h
    38  0000                     adresh	equ	0FC4h
    39  0000                     sspcon2	equ	0FC5h
    40  0000                     sspcon1	equ	0FC6h
    41  0000                     sspstat	equ	0FC7h
    42  0000                     sspadd	equ	0FC8h
    43  0000                     sspbuf	equ	0FC9h
    44  0000                     t2con	equ	0FCAh
    45  0000                     pr2	equ	0FCBh
    46  0000                     tmr2	equ	0FCCh
    47  0000                     t1con	equ	0FCDh
    48  0000                     tmr1l	equ	0FCEh
    49  0000                     tmr1h	equ	0FCFh
    50  0000                     rcon	equ	0FD0h
    51  0000                     wdtcon	equ	0FD1h
    52  0000                     lvdcon	equ	0FD2h
    53  0000                     osccon	equ	0FD3h
    54  0000                     t0con	equ	0FD5h
    55  0000                     tmr0l	equ	0FD6h
    56  0000                     tmr0h	equ	0FD7h
    57  0000                     status	equ	0FD8h
    58  0000                     fsr2	equ	0FD9h
    59  0000                     fsr2l	equ	0FD9h
    60  0000                     fsr2h	equ	0FDAh
    61  0000                     plusw2	equ	0FDBh
    62  0000                     preinc2	equ	0FDCh
    63  0000                     postdec2	equ	0FDDh
    64  0000                     postinc2	equ	0FDEh
    65  0000                     indf2	equ	0FDFh
    66  0000                     bsr	equ	0FE0h
    67  0000                     fsr1	equ	0FE1h
    68  0000                     fsr1l	equ	0FE1h
    69  0000                     fsr1h	equ	0FE2h
    70  0000                     plusw1	equ	0FE3h
    71  0000                     preinc1	equ	0FE4h
    72  0000                     postdec1	equ	0FE5h
    73  0000                     postinc1	equ	0FE6h
    74  0000                     indf1	equ	0FE7h
    75  0000                     wreg	equ	0FE8h
    76  0000                     fsr0	equ	0FE9h
    77  0000                     fsr0l	equ	0FE9h
    78  0000                     fsr0h	equ	0FEAh
    79  0000                     plusw0	equ	0FEBh
    80  0000                     preinc0	equ	0FECh
    81  0000                     postdec0	equ	0FEDh
    82  0000                     postinc0	equ	0FEEh
    83  0000                     indf0	equ	0FEFh
    84  0000                     intcon3	equ	0FF0h
    85  0000                     intcon2	equ	0FF1h
    86  0000                     intcon	equ	0FF2h
    87  0000                     prod	equ	0FF3h
    88  0000                     prodl	equ	0FF3h
    89  0000                     prodh	equ	0FF4h
    90  0000                     tablat	equ	0FF5h
    91  0000                     tblptr	equ	0FF6h
    92  0000                     tblptrl	equ	0FF6h
    93  0000                     tblptrh	equ	0FF7h
    94  0000                     tblptru	equ	0FF8h
    95  0000                     pcl	equ	0FF9h
    96  0000                     pclat	equ	0FFAh
    97  0000                     pclath	equ	0FFAh
    98  0000                     pclatu	equ	0FFBh
    99  0000                     stkptr	equ	0FFCh
   100  0000                     tosl	equ	0FFDh
   101  0000                     tosh	equ	0FFEh
   102  0000                     tosu	equ	0FFFh
   103                           skipnz macro
   104                           	btfsc	status,2
   105  0000                     	endm
   106                           	global	__ramtop
   107                           	global	__accesstop
   108                           # 19 "C:\Program Files (x86)\HI-TECH Software\PICC-18\9.80\include\pic18f2221.h"
   109  0000                     PORTA equ 0F80h ;# 
   110                           # 90 "C:\Program Files (x86)\HI-TECH Software\PICC-18\9.80\include\pic18f2221.h"
   111  0000                     PORTB equ 0F81h ;# 
   112                           # 139 "C:\Program Files (x86)\HI-TECH Software\PICC-18\9.80\include\pic18f2221.h"
   113  0000                     PORTC equ 0F82h ;# 
   114                           # 192 "C:\Program Files (x86)\HI-TECH Software\PICC-18\9.80\include\pic18f2221.h"
   115  0000                     PORTE equ 0F84h ;# 
   116                           # 317 "C:\Program Files (x86)\HI-TECH Software\PICC-18\9.80\include\pic18f2221.h"
   117  0000                     LATA equ 0F89h ;# 
   118                           # 370 "C:\Program Files (x86)\HI-TECH Software\PICC-18\9.80\include\pic18f2221.h"
   119  0000                     LATB equ 0F8Ah ;# 
   120                           # 423 "C:\Program Files (x86)\HI-TECH Software\PICC-18\9.80\include\pic18f2221.h"
   121  0000                     LATC equ 0F8Bh ;# 
   122                           # 476 "C:\Program Files (x86)\HI-TECH Software\PICC-18\9.80\include\pic18f2221.h"
   123  0000                     TRISA equ 0F92h ;# 
   124                           # 481 "C:\Program Files (x86)\HI-TECH Software\PICC-18\9.80\include\pic18f2221.h"
   125  0000                     DDRA equ 0F92h ;# 
   126                           # 539 "C:\Program Files (x86)\HI-TECH Software\PICC-18\9.80\include\pic18f2221.h"
   127  0000                     TRISB equ 0F93h ;# 
   128                           # 544 "C:\Program Files (x86)\HI-TECH Software\PICC-18\9.80\include\pic18f2221.h"
   129  0000                     DDRB equ 0F93h ;# 
   130                           # 602 "C:\Program Files (x86)\HI-TECH Software\PICC-18\9.80\include\pic18f2221.h"
   131  0000                     TRISC equ 0F94h ;# 
   132                           # 607 "C:\Program Files (x86)\HI-TECH Software\PICC-18\9.80\include\pic18f2221.h"
   133  0000                     DDRC equ 0F94h ;# 
   134                           # 665 "C:\Program Files (x86)\HI-TECH Software\PICC-18\9.80\include\pic18f2221.h"
   135  0000                     OSCTUNE equ 0F9Bh ;# 
   136                           # 687 "C:\Program Files (x86)\HI-TECH Software\PICC-18\9.80\include\pic18f2221.h"
   137  0000                     PIE1 equ 0F9Dh ;# 
   138                           # 713 "C:\Program Files (x86)\HI-TECH Software\PICC-18\9.80\include\pic18f2221.h"
   139  0000                     PIR1 equ 0F9Eh ;# 
   140                           # 747 "C:\Program Files (x86)\HI-TECH Software\PICC-18\9.80\include\pic18f2221.h"
   141  0000                     IPR1 equ 0F9Fh ;# 
   142                           # 773 "C:\Program Files (x86)\HI-TECH Software\PICC-18\9.80\include\pic18f2221.h"
   143  0000                     PIE2 equ 0FA0h ;# 
   144                           # 796 "C:\Program Files (x86)\HI-TECH Software\PICC-18\9.80\include\pic18f2221.h"
   145  0000                     PIR2 equ 0FA1h ;# 
   146                           # 819 "C:\Program Files (x86)\HI-TECH Software\PICC-18\9.80\include\pic18f2221.h"
   147  0000                     IPR2 equ 0FA2h ;# 
   148                           # 842 "C:\Program Files (x86)\HI-TECH Software\PICC-18\9.80\include\pic18f2221.h"
   149  0000                     EECON1 equ 0FA6h ;# 
   150                           # 865 "C:\Program Files (x86)\HI-TECH Software\PICC-18\9.80\include\pic18f2221.h"
   151  0000                     EECON2 equ 0FA7h ;# 
   152                           # 877 "C:\Program Files (x86)\HI-TECH Software\PICC-18\9.80\include\pic18f2221.h"
   153  0000                     EEDATA equ 0FA8h ;# 
   154                           # 889 "C:\Program Files (x86)\HI-TECH Software\PICC-18\9.80\include\pic18f2221.h"
   155  0000                     EEADR equ 0FA9h ;# 
   156                           # 901 "C:\Program Files (x86)\HI-TECH Software\PICC-18\9.80\include\pic18f2221.h"
   157  0000                     RCSTA equ 0FABh ;# 
   158                           # 906 "C:\Program Files (x86)\HI-TECH Software\PICC-18\9.80\include\pic18f2221.h"
   159  0000                     RCSTA1 equ 0FABh ;# 
   160                           # 954 "C:\Program Files (x86)\HI-TECH Software\PICC-18\9.80\include\pic18f2221.h"
   161  0000                     TXSTA equ 0FACh ;# 
   162                           # 959 "C:\Program Files (x86)\HI-TECH Software\PICC-18\9.80\include\pic18f2221.h"
   163  0000                     TXSTA1 equ 0FACh ;# 
   164                           # 1053 "C:\Program Files (x86)\HI-TECH Software\PICC-18\9.80\include\pic18f2221.h"
   165  0000                     TXREG equ 0FADh ;# 
   166                           # 1058 "C:\Program Files (x86)\HI-TECH Software\PICC-18\9.80\include\pic18f2221.h"
   167  0000                     TXREG1 equ 0FADh ;# 
   168                           # 1076 "C:\Program Files (x86)\HI-TECH Software\PICC-18\9.80\include\pic18f2221.h"
   169  0000                     RCREG equ 0FAEh ;# 
   170                           # 1081 "C:\Program Files (x86)\HI-TECH Software\PICC-18\9.80\include\pic18f2221.h"
   171  0000                     RCREG1 equ 0FAEh ;# 
   172                           # 1099 "C:\Program Files (x86)\HI-TECH Software\PICC-18\9.80\include\pic18f2221.h"
   173  0000                     SPBRG equ 0FAFh ;# 
   174                           # 1104 "C:\Program Files (x86)\HI-TECH Software\PICC-18\9.80\include\pic18f2221.h"
   175  0000                     SPBRG1 equ 0FAFh ;# 
   176                           # 1122 "C:\Program Files (x86)\HI-TECH Software\PICC-18\9.80\include\pic18f2221.h"
   177  0000                     SPBRGH equ 0FB0h ;# 
   178                           # 1134 "C:\Program Files (x86)\HI-TECH Software\PICC-18\9.80\include\pic18f2221.h"
   179  0000                     T3CON equ 0FB1h ;# 
   180                           # 1175 "C:\Program Files (x86)\HI-TECH Software\PICC-18\9.80\include\pic18f2221.h"
   181  0000                     TMR3 equ 0FB2h ;# 
   182                           # 1187 "C:\Program Files (x86)\HI-TECH Software\PICC-18\9.80\include\pic18f2221.h"
   183  0000                     TMR3L equ 0FB2h ;# 
   184                           # 1199 "C:\Program Files (x86)\HI-TECH Software\PICC-18\9.80\include\pic18f2221.h"
   185  0000                     TMR3H equ 0FB3h ;# 
   186                           # 1211 "C:\Program Files (x86)\HI-TECH Software\PICC-18\9.80\include\pic18f2221.h"
   187  0000                     CMCON equ 0FB4h ;# 
   188                           # 1244 "C:\Program Files (x86)\HI-TECH Software\PICC-18\9.80\include\pic18f2221.h"
   189  0000                     CVRCON equ 0FB5h ;# 
   190                           # 1270 "C:\Program Files (x86)\HI-TECH Software\PICC-18\9.80\include\pic18f2221.h"
   191  0000                     ECCP1AS equ 0FB6h ;# 
   192                           # 1293 "C:\Program Files (x86)\HI-TECH Software\PICC-18\9.80\include\pic18f2221.h"
   193  0000                     ECCP1DEL equ 0FB7h ;# 
   194                           # 1298 "C:\Program Files (x86)\HI-TECH Software\PICC-18\9.80\include\pic18f2221.h"
   195  0000                     PWM1CON equ 0FB7h ;# 
   196                           # 1318 "C:\Program Files (x86)\HI-TECH Software\PICC-18\9.80\include\pic18f2221.h"
   197  0000                     BAUDCON equ 0FB8h ;# 
   198                           # 1323 "C:\Program Files (x86)\HI-TECH Software\PICC-18\9.80\include\pic18f2221.h"
   199  0000                     BAUDCTL equ 0FB8h ;# 
   200                           # 1383 "C:\Program Files (x86)\HI-TECH Software\PICC-18\9.80\include\pic18f2221.h"
   201  0000                     CCP2CON equ 0FBAh ;# 
   202                           # 1409 "C:\Program Files (x86)\HI-TECH Software\PICC-18\9.80\include\pic18f2221.h"
   203  0000                     CCPR2 equ 0FBBh ;# 
   204                           # 1421 "C:\Program Files (x86)\HI-TECH Software\PICC-18\9.80\include\pic18f2221.h"
   205  0000                     CCPR2L equ 0FBBh ;# 
   206                           # 1433 "C:\Program Files (x86)\HI-TECH Software\PICC-18\9.80\include\pic18f2221.h"
   207  0000                     CCPR2H equ 0FBCh ;# 
   208                           # 1445 "C:\Program Files (x86)\HI-TECH Software\PICC-18\9.80\include\pic18f2221.h"
   209  0000                     CCP1CON equ 0FBDh ;# 
   210                           # 1450 "C:\Program Files (x86)\HI-TECH Software\PICC-18\9.80\include\pic18f2221.h"
   211  0000                     ECCP1CON equ 0FBDh ;# 
   212                           # 1496 "C:\Program Files (x86)\HI-TECH Software\PICC-18\9.80\include\pic18f2221.h"
   213  0000                     CCPR1 equ 0FBEh ;# 
   214                           # 1508 "C:\Program Files (x86)\HI-TECH Software\PICC-18\9.80\include\pic18f2221.h"
   215  0000                     CCPR1L equ 0FBEh ;# 
   216                           # 1520 "C:\Program Files (x86)\HI-TECH Software\PICC-18\9.80\include\pic18f2221.h"
   217  0000                     CCPR1H equ 0FBFh ;# 
   218                           # 1532 "C:\Program Files (x86)\HI-TECH Software\PICC-18\9.80\include\pic18f2221.h"
   219  0000                     ADCON2 equ 0FC0h ;# 
   220                           # 1555 "C:\Program Files (x86)\HI-TECH Software\PICC-18\9.80\include\pic18f2221.h"
   221  0000                     ADCON1 equ 0FC1h ;# 
   222                           # 1588 "C:\Program Files (x86)\HI-TECH Software\PICC-18\9.80\include\pic18f2221.h"
   223  0000                     ADCON0 equ 0FC2h ;# 
   224                           # 1643 "C:\Program Files (x86)\HI-TECH Software\PICC-18\9.80\include\pic18f2221.h"
   225  0000                     ADRES equ 0FC3h ;# 
   226                           # 1655 "C:\Program Files (x86)\HI-TECH Software\PICC-18\9.80\include\pic18f2221.h"
   227  0000                     ADRESL equ 0FC3h ;# 
   228                           # 1667 "C:\Program Files (x86)\HI-TECH Software\PICC-18\9.80\include\pic18f2221.h"
   229  0000                     ADRESH equ 0FC4h ;# 
   230                           # 1679 "C:\Program Files (x86)\HI-TECH Software\PICC-18\9.80\include\pic18f2221.h"
   231  0000                     SSPCON2 equ 0FC5h ;# 
   232                           # 1706 "C:\Program Files (x86)\HI-TECH Software\PICC-18\9.80\include\pic18f2221.h"
   233  0000                     SSPCON1 equ 0FC6h ;# 
   234                           # 1728 "C:\Program Files (x86)\HI-TECH Software\PICC-18\9.80\include\pic18f2221.h"
   235  0000                     SSPSTAT equ 0FC7h ;# 
   236                           # 1835 "C:\Program Files (x86)\HI-TECH Software\PICC-18\9.80\include\pic18f2221.h"
   237  0000                     SSPADD equ 0FC8h ;# 
   238                           # 1847 "C:\Program Files (x86)\HI-TECH Software\PICC-18\9.80\include\pic18f2221.h"
   239  0000                     SSPBUF equ 0FC9h ;# 
   240                           # 1859 "C:\Program Files (x86)\HI-TECH Software\PICC-18\9.80\include\pic18f2221.h"
   241  0000                     T2CON equ 0FCAh ;# 
   242                           # 1889 "C:\Program Files (x86)\HI-TECH Software\PICC-18\9.80\include\pic18f2221.h"
   243  0000                     PR2 equ 0FCBh ;# 
   244                           # 1894 "C:\Program Files (x86)\HI-TECH Software\PICC-18\9.80\include\pic18f2221.h"
   245  0000                     MEMCON equ 0FCBh ;# 
   246                           # 1912 "C:\Program Files (x86)\HI-TECH Software\PICC-18\9.80\include\pic18f2221.h"
   247  0000                     TMR2 equ 0FCCh ;# 
   248                           # 1924 "C:\Program Files (x86)\HI-TECH Software\PICC-18\9.80\include\pic18f2221.h"
   249  0000                     T1CON equ 0FCDh ;# 
   250                           # 1961 "C:\Program Files (x86)\HI-TECH Software\PICC-18\9.80\include\pic18f2221.h"
   251  0000                     TMR1 equ 0FCEh ;# 
   252                           # 1973 "C:\Program Files (x86)\HI-TECH Software\PICC-18\9.80\include\pic18f2221.h"
   253  0000                     TMR1L equ 0FCEh ;# 
   254                           # 1985 "C:\Program Files (x86)\HI-TECH Software\PICC-18\9.80\include\pic18f2221.h"
   255  0000                     TMR1H equ 0FCFh ;# 
   256                           # 1997 "C:\Program Files (x86)\HI-TECH Software\PICC-18\9.80\include\pic18f2221.h"
   257  0000                     RCON equ 0FD0h ;# 
   258                           # 2043 "C:\Program Files (x86)\HI-TECH Software\PICC-18\9.80\include\pic18f2221.h"
   259  0000                     WDTCON equ 0FD1h ;# 
   260                           # 2058 "C:\Program Files (x86)\HI-TECH Software\PICC-18\9.80\include\pic18f2221.h"
   261  0000                     HLVDCON equ 0FD2h ;# 
   262                           # 2063 "C:\Program Files (x86)\HI-TECH Software\PICC-18\9.80\include\pic18f2221.h"
   263  0000                     LVDCON equ 0FD2h ;# 
   264                           # 2131 "C:\Program Files (x86)\HI-TECH Software\PICC-18\9.80\include\pic18f2221.h"
   265  0000                     OSCCON equ 0FD3h ;# 
   266                           # 2156 "C:\Program Files (x86)\HI-TECH Software\PICC-18\9.80\include\pic18f2221.h"
   267  0000                     T0CON equ 0FD5h ;# 
   268                           # 2180 "C:\Program Files (x86)\HI-TECH Software\PICC-18\9.80\include\pic18f2221.h"
   269  0000                     TMR0 equ 0FD6h ;# 
   270                           # 2192 "C:\Program Files (x86)\HI-TECH Software\PICC-18\9.80\include\pic18f2221.h"
   271  0000                     TMR0L equ 0FD6h ;# 
   272                           # 2204 "C:\Program Files (x86)\HI-TECH Software\PICC-18\9.80\include\pic18f2221.h"
   273  0000                     TMR0H equ 0FD7h ;# 
   274                           # 2216 "C:\Program Files (x86)\HI-TECH Software\PICC-18\9.80\include\pic18f2221.h"
   275  0000                     STATUS equ 0FD8h ;# 
   276                           # 2247 "C:\Program Files (x86)\HI-TECH Software\PICC-18\9.80\include\pic18f2221.h"
   277  0000                     FSR2 equ 0FD9h ;# 
   278                           # 2259 "C:\Program Files (x86)\HI-TECH Software\PICC-18\9.80\include\pic18f2221.h"
   279  0000                     FSR2L equ 0FD9h ;# 
   280                           # 2271 "C:\Program Files (x86)\HI-TECH Software\PICC-18\9.80\include\pic18f2221.h"
   281  0000                     FSR2H equ 0FDAh ;# 
   282                           # 2283 "C:\Program Files (x86)\HI-TECH Software\PICC-18\9.80\include\pic18f2221.h"
   283  0000                     PLUSW2 equ 0FDBh ;# 
   284                           # 2295 "C:\Program Files (x86)\HI-TECH Software\PICC-18\9.80\include\pic18f2221.h"
   285  0000                     PREINC2 equ 0FDCh ;# 
   286                           # 2307 "C:\Program Files (x86)\HI-TECH Software\PICC-18\9.80\include\pic18f2221.h"
   287  0000                     POSTDEC2 equ 0FDDh ;# 
   288                           # 2319 "C:\Program Files (x86)\HI-TECH Software\PICC-18\9.80\include\pic18f2221.h"
   289  0000                     POSTINC2 equ 0FDEh ;# 
   290                           # 2331 "C:\Program Files (x86)\HI-TECH Software\PICC-18\9.80\include\pic18f2221.h"
   291  0000                     INDF2 equ 0FDFh ;# 
   292                           # 2343 "C:\Program Files (x86)\HI-TECH Software\PICC-18\9.80\include\pic18f2221.h"
   293  0000                     BSR equ 0FE0h ;# 
   294                           # 2355 "C:\Program Files (x86)\HI-TECH Software\PICC-18\9.80\include\pic18f2221.h"
   295  0000                     FSR1 equ 0FE1h ;# 
   296                           # 2367 "C:\Program Files (x86)\HI-TECH Software\PICC-18\9.80\include\pic18f2221.h"
   297  0000                     FSR1L equ 0FE1h ;# 
   298                           # 2379 "C:\Program Files (x86)\HI-TECH Software\PICC-18\9.80\include\pic18f2221.h"
   299  0000                     FSR1H equ 0FE2h ;# 
   300                           # 2391 "C:\Program Files (x86)\HI-TECH Software\PICC-18\9.80\include\pic18f2221.h"
   301  0000                     PLUSW1 equ 0FE3h ;# 
   302                           # 2403 "C:\Program Files (x86)\HI-TECH Software\PICC-18\9.80\include\pic18f2221.h"
   303  0000                     PREINC1 equ 0FE4h ;# 
   304                           # 2415 "C:\Program Files (x86)\HI-TECH Software\PICC-18\9.80\include\pic18f2221.h"
   305  0000                     POSTDEC1 equ 0FE5h ;# 
   306                           # 2427 "C:\Program Files (x86)\HI-TECH Software\PICC-18\9.80\include\pic18f2221.h"
   307  0000                     POSTINC1 equ 0FE6h ;# 
   308                           # 2439 "C:\Program Files (x86)\HI-TECH Software\PICC-18\9.80\include\pic18f2221.h"
   309  0000                     INDF1 equ 0FE7h ;# 
   310                           # 2451 "C:\Program Files (x86)\HI-TECH Software\PICC-18\9.80\include\pic18f2221.h"
   311  0000                     WREG equ 0FE8h ;# 
   312                           # 2474 "C:\Program Files (x86)\HI-TECH Software\PICC-18\9.80\include\pic18f2221.h"
   313  0000                     FSR0 equ 0FE9h ;# 
   314                           # 2486 "C:\Program Files (x86)\HI-TECH Software\PICC-18\9.80\include\pic18f2221.h"
   315  0000                     FSR0L equ 0FE9h ;# 
   316                           # 2498 "C:\Program Files (x86)\HI-TECH Software\PICC-18\9.80\include\pic18f2221.h"
   317  0000                     FSR0H equ 0FEAh ;# 
   318                           # 2510 "C:\Program Files (x86)\HI-TECH Software\PICC-18\9.80\include\pic18f2221.h"
   319  0000                     PLUSW0 equ 0FEBh ;# 
   320                           # 2522 "C:\Program Files (x86)\HI-TECH Software\PICC-18\9.80\include\pic18f2221.h"
   321  0000                     PREINC0 equ 0FECh ;# 
   322                           # 2534 "C:\Program Files (x86)\HI-TECH Software\PICC-18\9.80\include\pic18f2221.h"
   323  0000                     POSTDEC0 equ 0FEDh ;# 
   324                           # 2546 "C:\Program Files (x86)\HI-TECH Software\PICC-18\9.80\include\pic18f2221.h"
   325  0000                     POSTINC0 equ 0FEEh ;# 
   326                           # 2558 "C:\Program Files (x86)\HI-TECH Software\PICC-18\9.80\include\pic18f2221.h"
   327  0000                     INDF0 equ 0FEFh ;# 
   328                           # 2570 "C:\Program Files (x86)\HI-TECH Software\PICC-18\9.80\include\pic18f2221.h"
   329  0000                     INTCON3 equ 0FF0h ;# 
   330                           # 2599 "C:\Program Files (x86)\HI-TECH Software\PICC-18\9.80\include\pic18f2221.h"
   331  0000                     INTCON2 equ 0FF1h ;# 
   332                           # 2626 "C:\Program Files (x86)\HI-TECH Software\PICC-18\9.80\include\pic18f2221.h"
   333  0000                     INTCON equ 0FF2h ;# 
   334                           # 2690 "C:\Program Files (x86)\HI-TECH Software\PICC-18\9.80\include\pic18f2221.h"
   335  0000                     PROD equ 0FF3h ;# 
   336                           # 2702 "C:\Program Files (x86)\HI-TECH Software\PICC-18\9.80\include\pic18f2221.h"
   337  0000                     PRODL equ 0FF3h ;# 
   338                           # 2714 "C:\Program Files (x86)\HI-TECH Software\PICC-18\9.80\include\pic18f2221.h"
   339  0000                     PRODH equ 0FF4h ;# 
   340                           # 2726 "C:\Program Files (x86)\HI-TECH Software\PICC-18\9.80\include\pic18f2221.h"
   341  0000                     TABLAT equ 0FF5h ;# 
   342                           # 2738 "C:\Program Files (x86)\HI-TECH Software\PICC-18\9.80\include\pic18f2221.h"
   343  0000                     TBLPTR equ 0FF6h ;# 
   344                           # 2751 "C:\Program Files (x86)\HI-TECH Software\PICC-18\9.80\include\pic18f2221.h"
   345  0000                     TBLPTRL equ 0FF6h ;# 
   346                           # 2763 "C:\Program Files (x86)\HI-TECH Software\PICC-18\9.80\include\pic18f2221.h"
   347  0000                     TBLPTRH equ 0FF7h ;# 
   348                           # 2775 "C:\Program Files (x86)\HI-TECH Software\PICC-18\9.80\include\pic18f2221.h"
   349  0000                     TBLPTRU equ 0FF8h ;# 
   350                           # 2788 "C:\Program Files (x86)\HI-TECH Software\PICC-18\9.80\include\pic18f2221.h"
   351  0000                     PCLAT equ 0FF9h ;# 
   352                           # 2793 "C:\Program Files (x86)\HI-TECH Software\PICC-18\9.80\include\pic18f2221.h"
   353  0000                     PC equ 0FF9h ;# 
   354                           # 2811 "C:\Program Files (x86)\HI-TECH Software\PICC-18\9.80\include\pic18f2221.h"
   355  0000                     PCL equ 0FF9h ;# 
   356                           # 2823 "C:\Program Files (x86)\HI-TECH Software\PICC-18\9.80\include\pic18f2221.h"
   357  0000                     PCLATH equ 0FFAh ;# 
   358                           # 2835 "C:\Program Files (x86)\HI-TECH Software\PICC-18\9.80\include\pic18f2221.h"
   359  0000                     PCLATU equ 0FFBh ;# 
   360                           # 2847 "C:\Program Files (x86)\HI-TECH Software\PICC-18\9.80\include\pic18f2221.h"
   361  0000                     STKPTR equ 0FFCh ;# 
   362                           # 2871 "C:\Program Files (x86)\HI-TECH Software\PICC-18\9.80\include\pic18f2221.h"
   363  0000                     TOS equ 0FFDh ;# 
   364                           # 2883 "C:\Program Files (x86)\HI-TECH Software\PICC-18\9.80\include\pic18f2221.h"
   365  0000                     TOSL equ 0FFDh ;# 
   366                           # 2895 "C:\Program Files (x86)\HI-TECH Software\PICC-18\9.80\include\pic18f2221.h"
   367  0000                     TOSH equ 0FFEh ;# 
   368                           # 2907 "C:\Program Files (x86)\HI-TECH Software\PICC-18\9.80\include\pic18f2221.h"
   369  0000                     TOSU equ 0FFFh ;# 
   370                           # 19 "C:\Program Files (x86)\HI-TECH Software\PICC-18\9.80\include\pic18f2221.h"
   371  0000                     PORTA equ 0F80h ;# 
   372                           # 90 "C:\Program Files (x86)\HI-TECH Software\PICC-18\9.80\include\pic18f2221.h"
   373  0000                     PORTB equ 0F81h ;# 
   374                           # 139 "C:\Program Files (x86)\HI-TECH Software\PICC-18\9.80\include\pic18f2221.h"
   375  0000                     PORTC equ 0F82h ;# 
   376                           # 192 "C:\Program Files (x86)\HI-TECH Software\PICC-18\9.80\include\pic18f2221.h"
   377  0000                     PORTE equ 0F84h ;# 
   378                           # 317 "C:\Program Files (x86)\HI-TECH Software\PICC-18\9.80\include\pic18f2221.h"
   379  0000                     LATA equ 0F89h ;# 
   380                           # 370 "C:\Program Files (x86)\HI-TECH Software\PICC-18\9.80\include\pic18f2221.h"
   381  0000                     LATB equ 0F8Ah ;# 
   382                           # 423 "C:\Program Files (x86)\HI-TECH Software\PICC-18\9.80\include\pic18f2221.h"
   383  0000                     LATC equ 0F8Bh ;# 
   384                           # 476 "C:\Program Files (x86)\HI-TECH Software\PICC-18\9.80\include\pic18f2221.h"
   385  0000                     TRISA equ 0F92h ;# 
   386                           # 481 "C:\Program Files (x86)\HI-TECH Software\PICC-18\9.80\include\pic18f2221.h"
   387  0000                     DDRA equ 0F92h ;# 
   388                           # 539 "C:\Program Files (x86)\HI-TECH Software\PICC-18\9.80\include\pic18f2221.h"
   389  0000                     TRISB equ 0F93h ;# 
   390                           # 544 "C:\Program Files (x86)\HI-TECH Software\PICC-18\9.80\include\pic18f2221.h"
   391  0000                     DDRB equ 0F93h ;# 
   392                           # 602 "C:\Program Files (x86)\HI-TECH Software\PICC-18\9.80\include\pic18f2221.h"
   393  0000                     TRISC equ 0F94h ;# 
   394                           # 607 "C:\Program Files (x86)\HI-TECH Software\PICC-18\9.80\include\pic18f2221.h"
   395  0000                     DDRC equ 0F94h ;# 
   396                           # 665 "C:\Program Files (x86)\HI-TECH Software\PICC-18\9.80\include\pic18f2221.h"
   397  0000                     OSCTUNE equ 0F9Bh ;# 
   398                           # 687 "C:\Program Files (x86)\HI-TECH Software\PICC-18\9.80\include\pic18f2221.h"
   399  0000                     PIE1 equ 0F9Dh ;# 
   400                           # 713 "C:\Program Files (x86)\HI-TECH Software\PICC-18\9.80\include\pic18f2221.h"
   401  0000                     PIR1 equ 0F9Eh ;# 
   402                           # 747 "C:\Program Files (x86)\HI-TECH Software\PICC-18\9.80\include\pic18f2221.h"
   403  0000                     IPR1 equ 0F9Fh ;# 
   404                           # 773 "C:\Program Files (x86)\HI-TECH Software\PICC-18\9.80\include\pic18f2221.h"
   405  0000                     PIE2 equ 0FA0h ;# 
   406                           # 796 "C:\Program Files (x86)\HI-TECH Software\PICC-18\9.80\include\pic18f2221.h"
   407  0000                     PIR2 equ 0FA1h ;# 
   408                           # 819 "C:\Program Files (x86)\HI-TECH Software\PICC-18\9.80\include\pic18f2221.h"
   409  0000                     IPR2 equ 0FA2h ;# 
   410                           # 842 "C:\Program Files (x86)\HI-TECH Software\PICC-18\9.80\include\pic18f2221.h"
   411  0000                     EECON1 equ 0FA6h ;# 
   412                           # 865 "C:\Program Files (x86)\HI-TECH Software\PICC-18\9.80\include\pic18f2221.h"
   413  0000                     EECON2 equ 0FA7h ;# 
   414                           # 877 "C:\Program Files (x86)\HI-TECH Software\PICC-18\9.80\include\pic18f2221.h"
   415  0000                     EEDATA equ 0FA8h ;# 
   416                           # 889 "C:\Program Files (x86)\HI-TECH Software\PICC-18\9.80\include\pic18f2221.h"
   417  0000                     EEADR equ 0FA9h ;# 
   418                           # 901 "C:\Program Files (x86)\HI-TECH Software\PICC-18\9.80\include\pic18f2221.h"
   419  0000                     RCSTA equ 0FABh ;# 
   420                           # 906 "C:\Program Files (x86)\HI-TECH Software\PICC-18\9.80\include\pic18f2221.h"
   421  0000                     RCSTA1 equ 0FABh ;# 
   422                           # 954 "C:\Program Files (x86)\HI-TECH Software\PICC-18\9.80\include\pic18f2221.h"
   423  0000                     TXSTA equ 0FACh ;# 
   424                           # 959 "C:\Program Files (x86)\HI-TECH Software\PICC-18\9.80\include\pic18f2221.h"
   425  0000                     TXSTA1 equ 0FACh ;# 
   426                           # 1053 "C:\Program Files (x86)\HI-TECH Software\PICC-18\9.80\include\pic18f2221.h"
   427  0000                     TXREG equ 0FADh ;# 
   428                           # 1058 "C:\Program Files (x86)\HI-TECH Software\PICC-18\9.80\include\pic18f2221.h"
   429  0000                     TXREG1 equ 0FADh ;# 
   430                           # 1076 "C:\Program Files (x86)\HI-TECH Software\PICC-18\9.80\include\pic18f2221.h"
   431  0000                     RCREG equ 0FAEh ;# 
   432                           # 1081 "C:\Program Files (x86)\HI-TECH Software\PICC-18\9.80\include\pic18f2221.h"
   433  0000                     RCREG1 equ 0FAEh ;# 
   434                           # 1099 "C:\Program Files (x86)\HI-TECH Software\PICC-18\9.80\include\pic18f2221.h"
   435  0000                     SPBRG equ 0FAFh ;# 
   436                           # 1104 "C:\Program Files (x86)\HI-TECH Software\PICC-18\9.80\include\pic18f2221.h"
   437  0000                     SPBRG1 equ 0FAFh ;# 
   438                           # 1122 "C:\Program Files (x86)\HI-TECH Software\PICC-18\9.80\include\pic18f2221.h"
   439  0000                     SPBRGH equ 0FB0h ;# 
   440                           # 1134 "C:\Program Files (x86)\HI-TECH Software\PICC-18\9.80\include\pic18f2221.h"
   441  0000                     T3CON equ 0FB1h ;# 
   442                           # 1175 "C:\Program Files (x86)\HI-TECH Software\PICC-18\9.80\include\pic18f2221.h"
   443  0000                     TMR3 equ 0FB2h ;# 
   444                           # 1187 "C:\Program Files (x86)\HI-TECH Software\PICC-18\9.80\include\pic18f2221.h"
   445  0000                     TMR3L equ 0FB2h ;# 
   446                           # 1199 "C:\Program Files (x86)\HI-TECH Software\PICC-18\9.80\include\pic18f2221.h"
   447  0000                     TMR3H equ 0FB3h ;# 
   448                           # 1211 "C:\Program Files (x86)\HI-TECH Software\PICC-18\9.80\include\pic18f2221.h"
   449  0000                     CMCON equ 0FB4h ;# 
   450                           # 1244 "C:\Program Files (x86)\HI-TECH Software\PICC-18\9.80\include\pic18f2221.h"
   451  0000                     CVRCON equ 0FB5h ;# 
   452                           # 1270 "C:\Program Files (x86)\HI-TECH Software\PICC-18\9.80\include\pic18f2221.h"
   453  0000                     ECCP1AS equ 0FB6h ;# 
   454                           # 1293 "C:\Program Files (x86)\HI-TECH Software\PICC-18\9.80\include\pic18f2221.h"
   455  0000                     ECCP1DEL equ 0FB7h ;# 
   456                           # 1298 "C:\Program Files (x86)\HI-TECH Software\PICC-18\9.80\include\pic18f2221.h"
   457  0000                     PWM1CON equ 0FB7h ;# 
   458                           # 1318 "C:\Program Files (x86)\HI-TECH Software\PICC-18\9.80\include\pic18f2221.h"
   459  0000                     BAUDCON equ 0FB8h ;# 
   460                           # 1323 "C:\Program Files (x86)\HI-TECH Software\PICC-18\9.80\include\pic18f2221.h"
   461  0000                     BAUDCTL equ 0FB8h ;# 
   462                           # 1383 "C:\Program Files (x86)\HI-TECH Software\PICC-18\9.80\include\pic18f2221.h"
   463  0000                     CCP2CON equ 0FBAh ;# 
   464                           # 1409 "C:\Program Files (x86)\HI-TECH Software\PICC-18\9.80\include\pic18f2221.h"
   465  0000                     CCPR2 equ 0FBBh ;# 
   466                           # 1421 "C:\Program Files (x86)\HI-TECH Software\PICC-18\9.80\include\pic18f2221.h"
   467  0000                     CCPR2L equ 0FBBh ;# 
   468                           # 1433 "C:\Program Files (x86)\HI-TECH Software\PICC-18\9.80\include\pic18f2221.h"
   469  0000                     CCPR2H equ 0FBCh ;# 
   470                           # 1445 "C:\Program Files (x86)\HI-TECH Software\PICC-18\9.80\include\pic18f2221.h"
   471  0000                     CCP1CON equ 0FBDh ;# 
   472                           # 1450 "C:\Program Files (x86)\HI-TECH Software\PICC-18\9.80\include\pic18f2221.h"
   473  0000                     ECCP1CON equ 0FBDh ;# 
   474                           # 1496 "C:\Program Files (x86)\HI-TECH Software\PICC-18\9.80\include\pic18f2221.h"
   475  0000                     CCPR1 equ 0FBEh ;# 
   476                           # 1508 "C:\Program Files (x86)\HI-TECH Software\PICC-18\9.80\include\pic18f2221.h"
   477  0000                     CCPR1L equ 0FBEh ;# 
   478                           # 1520 "C:\Program Files (x86)\HI-TECH Software\PICC-18\9.80\include\pic18f2221.h"
   479  0000                     CCPR1H equ 0FBFh ;# 
   480                           # 1532 "C:\Program Files (x86)\HI-TECH Software\PICC-18\9.80\include\pic18f2221.h"
   481  0000                     ADCON2 equ 0FC0h ;# 
   482                           # 1555 "C:\Program Files (x86)\HI-TECH Software\PICC-18\9.80\include\pic18f2221.h"
   483  0000                     ADCON1 equ 0FC1h ;# 
   484                           # 1588 "C:\Program Files (x86)\HI-TECH Software\PICC-18\9.80\include\pic18f2221.h"
   485  0000                     ADCON0 equ 0FC2h ;# 
   486                           # 1643 "C:\Program Files (x86)\HI-TECH Software\PICC-18\9.80\include\pic18f2221.h"
   487  0000                     ADRES equ 0FC3h ;# 
   488                           # 1655 "C:\Program Files (x86)\HI-TECH Software\PICC-18\9.80\include\pic18f2221.h"
   489  0000                     ADRESL equ 0FC3h ;# 
   490                           # 1667 "C:\Program Files (x86)\HI-TECH Software\PICC-18\9.80\include\pic18f2221.h"
   491  0000                     ADRESH equ 0FC4h ;# 
   492                           # 1679 "C:\Program Files (x86)\HI-TECH Software\PICC-18\9.80\include\pic18f2221.h"
   493  0000                     SSPCON2 equ 0FC5h ;# 
   494                           # 1706 "C:\Program Files (x86)\HI-TECH Software\PICC-18\9.80\include\pic18f2221.h"
   495  0000                     SSPCON1 equ 0FC6h ;# 
   496                           # 1728 "C:\Program Files (x86)\HI-TECH Software\PICC-18\9.80\include\pic18f2221.h"
   497  0000                     SSPSTAT equ 0FC7h ;# 
   498                           # 1835 "C:\Program Files (x86)\HI-TECH Software\PICC-18\9.80\include\pic18f2221.h"
   499  0000                     SSPADD equ 0FC8h ;# 
   500                           # 1847 "C:\Program Files (x86)\HI-TECH Software\PICC-18\9.80\include\pic18f2221.h"
   501  0000                     SSPBUF equ 0FC9h ;# 
   502                           # 1859 "C:\Program Files (x86)\HI-TECH Software\PICC-18\9.80\include\pic18f2221.h"
   503  0000                     T2CON equ 0FCAh ;# 
   504                           # 1889 "C:\Program Files (x86)\HI-TECH Software\PICC-18\9.80\include\pic18f2221.h"
   505  0000                     PR2 equ 0FCBh ;# 
   506                           # 1894 "C:\Program Files (x86)\HI-TECH Software\PICC-18\9.80\include\pic18f2221.h"
   507  0000                     MEMCON equ 0FCBh ;# 
   508                           # 1912 "C:\Program Files (x86)\HI-TECH Software\PICC-18\9.80\include\pic18f2221.h"
   509  0000                     TMR2 equ 0FCCh ;# 
   510                           # 1924 "C:\Program Files (x86)\HI-TECH Software\PICC-18\9.80\include\pic18f2221.h"
   511  0000                     T1CON equ 0FCDh ;# 
   512                           # 1961 "C:\Program Files (x86)\HI-TECH Software\PICC-18\9.80\include\pic18f2221.h"
   513  0000                     TMR1 equ 0FCEh ;# 
   514                           # 1973 "C:\Program Files (x86)\HI-TECH Software\PICC-18\9.80\include\pic18f2221.h"
   515  0000                     TMR1L equ 0FCEh ;# 
   516                           # 1985 "C:\Program Files (x86)\HI-TECH Software\PICC-18\9.80\include\pic18f2221.h"
   517  0000                     TMR1H equ 0FCFh ;# 
   518                           # 1997 "C:\Program Files (x86)\HI-TECH Software\PICC-18\9.80\include\pic18f2221.h"
   519  0000                     RCON equ 0FD0h ;# 
   520                           # 2043 "C:\Program Files (x86)\HI-TECH Software\PICC-18\9.80\include\pic18f2221.h"
   521  0000                     WDTCON equ 0FD1h ;# 
   522                           # 2058 "C:\Program Files (x86)\HI-TECH Software\PICC-18\9.80\include\pic18f2221.h"
   523  0000                     HLVDCON equ 0FD2h ;# 
   524                           # 2063 "C:\Program Files (x86)\HI-TECH Software\PICC-18\9.80\include\pic18f2221.h"
   525  0000                     LVDCON equ 0FD2h ;# 
   526                           # 2131 "C:\Program Files (x86)\HI-TECH Software\PICC-18\9.80\include\pic18f2221.h"
   527  0000                     OSCCON equ 0FD3h ;# 
   528                           # 2156 "C:\Program Files (x86)\HI-TECH Software\PICC-18\9.80\include\pic18f2221.h"
   529  0000                     T0CON equ 0FD5h ;# 
   530                           # 2180 "C:\Program Files (x86)\HI-TECH Software\PICC-18\9.80\include\pic18f2221.h"
   531  0000                     TMR0 equ 0FD6h ;# 
   532                           # 2192 "C:\Program Files (x86)\HI-TECH Software\PICC-18\9.80\include\pic18f2221.h"
   533  0000                     TMR0L equ 0FD6h ;# 
   534                           # 2204 "C:\Program Files (x86)\HI-TECH Software\PICC-18\9.80\include\pic18f2221.h"
   535  0000                     TMR0H equ 0FD7h ;# 
   536                           # 2216 "C:\Program Files (x86)\HI-TECH Software\PICC-18\9.80\include\pic18f2221.h"
   537  0000                     STATUS equ 0FD8h ;# 
   538                           # 2247 "C:\Program Files (x86)\HI-TECH Software\PICC-18\9.80\include\pic18f2221.h"
   539  0000                     FSR2 equ 0FD9h ;# 
   540                           # 2259 "C:\Program Files (x86)\HI-TECH Software\PICC-18\9.80\include\pic18f2221.h"
   541  0000                     FSR2L equ 0FD9h ;# 
   542                           # 2271 "C:\Program Files (x86)\HI-TECH Software\PICC-18\9.80\include\pic18f2221.h"
   543  0000                     FSR2H equ 0FDAh ;# 
   544                           # 2283 "C:\Program Files (x86)\HI-TECH Software\PICC-18\9.80\include\pic18f2221.h"
   545  0000                     PLUSW2 equ 0FDBh ;# 
   546                           # 2295 "C:\Program Files (x86)\HI-TECH Software\PICC-18\9.80\include\pic18f2221.h"
   547  0000                     PREINC2 equ 0FDCh ;# 
   548                           # 2307 "C:\Program Files (x86)\HI-TECH Software\PICC-18\9.80\include\pic18f2221.h"
   549  0000                     POSTDEC2 equ 0FDDh ;# 
   550                           # 2319 "C:\Program Files (x86)\HI-TECH Software\PICC-18\9.80\include\pic18f2221.h"
   551  0000                     POSTINC2 equ 0FDEh ;# 
   552                           # 2331 "C:\Program Files (x86)\HI-TECH Software\PICC-18\9.80\include\pic18f2221.h"
   553  0000                     INDF2 equ 0FDFh ;# 
   554                           # 2343 "C:\Program Files (x86)\HI-TECH Software\PICC-18\9.80\include\pic18f2221.h"
   555  0000                     BSR equ 0FE0h ;# 
   556                           # 2355 "C:\Program Files (x86)\HI-TECH Software\PICC-18\9.80\include\pic18f2221.h"
   557  0000                     FSR1 equ 0FE1h ;# 
   558                           # 2367 "C:\Program Files (x86)\HI-TECH Software\PICC-18\9.80\include\pic18f2221.h"
   559  0000                     FSR1L equ 0FE1h ;# 
   560                           # 2379 "C:\Program Files (x86)\HI-TECH Software\PICC-18\9.80\include\pic18f2221.h"
   561  0000                     FSR1H equ 0FE2h ;# 
   562                           # 2391 "C:\Program Files (x86)\HI-TECH Software\PICC-18\9.80\include\pic18f2221.h"
   563  0000                     PLUSW1 equ 0FE3h ;# 
   564                           # 2403 "C:\Program Files (x86)\HI-TECH Software\PICC-18\9.80\include\pic18f2221.h"
   565  0000                     PREINC1 equ 0FE4h ;# 
   566                           # 2415 "C:\Program Files (x86)\HI-TECH Software\PICC-18\9.80\include\pic18f2221.h"
   567  0000                     POSTDEC1 equ 0FE5h ;# 
   568                           # 2427 "C:\Program Files (x86)\HI-TECH Software\PICC-18\9.80\include\pic18f2221.h"
   569  0000                     POSTINC1 equ 0FE6h ;# 
   570                           # 2439 "C:\Program Files (x86)\HI-TECH Software\PICC-18\9.80\include\pic18f2221.h"
   571  0000                     INDF1 equ 0FE7h ;# 
   572                           # 2451 "C:\Program Files (x86)\HI-TECH Software\PICC-18\9.80\include\pic18f2221.h"
   573  0000                     WREG equ 0FE8h ;# 
   574                           # 2474 "C:\Program Files (x86)\HI-TECH Software\PICC-18\9.80\include\pic18f2221.h"
   575  0000                     FSR0 equ 0FE9h ;# 
   576                           # 2486 "C:\Program Files (x86)\HI-TECH Software\PICC-18\9.80\include\pic18f2221.h"
   577  0000                     FSR0L equ 0FE9h ;# 
   578                           # 2498 "C:\Program Files (x86)\HI-TECH Software\PICC-18\9.80\include\pic18f2221.h"
   579  0000                     FSR0H equ 0FEAh ;# 
   580                           # 2510 "C:\Program Files (x86)\HI-TECH Software\PICC-18\9.80\include\pic18f2221.h"
   581  0000                     PLUSW0 equ 0FEBh ;# 
   582                           # 2522 "C:\Program Files (x86)\HI-TECH Software\PICC-18\9.80\include\pic18f2221.h"
   583  0000                     PREINC0 equ 0FECh ;# 
   584                           # 2534 "C:\Program Files (x86)\HI-TECH Software\PICC-18\9.80\include\pic18f2221.h"
   585  0000                     POSTDEC0 equ 0FEDh ;# 
   586                           # 2546 "C:\Program Files (x86)\HI-TECH Software\PICC-18\9.80\include\pic18f2221.h"
   587  0000                     POSTINC0 equ 0FEEh ;# 
   588                           # 2558 "C:\Program Files (x86)\HI-TECH Software\PICC-18\9.80\include\pic18f2221.h"
   589  0000                     INDF0 equ 0FEFh ;# 
   590                           # 2570 "C:\Program Files (x86)\HI-TECH Software\PICC-18\9.80\include\pic18f2221.h"
   591  0000                     INTCON3 equ 0FF0h ;# 
   592                           # 2599 "C:\Program Files (x86)\HI-TECH Software\PICC-18\9.80\include\pic18f2221.h"
   593  0000                     INTCON2 equ 0FF1h ;# 
   594                           # 2626 "C:\Program Files (x86)\HI-TECH Software\PICC-18\9.80\include\pic18f2221.h"
   595  0000                     INTCON equ 0FF2h ;# 
   596                           # 2690 "C:\Program Files (x86)\HI-TECH Software\PICC-18\9.80\include\pic18f2221.h"
   597  0000                     PROD equ 0FF3h ;# 
   598                           # 2702 "C:\Program Files (x86)\HI-TECH Software\PICC-18\9.80\include\pic18f2221.h"
   599  0000                     PRODL equ 0FF3h ;# 
   600                           # 2714 "C:\Program Files (x86)\HI-TECH Software\PICC-18\9.80\include\pic18f2221.h"
   601  0000                     PRODH equ 0FF4h ;# 
   602                           # 2726 "C:\Program Files (x86)\HI-TECH Software\PICC-18\9.80\include\pic18f2221.h"
   603  0000                     TABLAT equ 0FF5h ;# 
   604                           # 2738 "C:\Program Files (x86)\HI-TECH Software\PICC-18\9.80\include\pic18f2221.h"
   605  0000                     TBLPTR equ 0FF6h ;# 
   606                           # 2751 "C:\Program Files (x86)\HI-TECH Software\PICC-18\9.80\include\pic18f2221.h"
   607  0000                     TBLPTRL equ 0FF6h ;# 
   608                           # 2763 "C:\Program Files (x86)\HI-TECH Software\PICC-18\9.80\include\pic18f2221.h"
   609  0000                     TBLPTRH equ 0FF7h ;# 
   610                           # 2775 "C:\Program Files (x86)\HI-TECH Software\PICC-18\9.80\include\pic18f2221.h"
   611  0000                     TBLPTRU equ 0FF8h ;# 
   612                           # 2788 "C:\Program Files (x86)\HI-TECH Software\PICC-18\9.80\include\pic18f2221.h"
   613  0000                     PCLAT equ 0FF9h ;# 
   614                           # 2793 "C:\Program Files (x86)\HI-TECH Software\PICC-18\9.80\include\pic18f2221.h"
   615  0000                     PC equ 0FF9h ;# 
   616                           # 2811 "C:\Program Files (x86)\HI-TECH Software\PICC-18\9.80\include\pic18f2221.h"
   617  0000                     PCL equ 0FF9h ;# 
   618                           # 2823 "C:\Program Files (x86)\HI-TECH Software\PICC-18\9.80\include\pic18f2221.h"
   619  0000                     PCLATH equ 0FFAh ;# 
   620                           # 2835 "C:\Program Files (x86)\HI-TECH Software\PICC-18\9.80\include\pic18f2221.h"
   621  0000                     PCLATU equ 0FFBh ;# 
   622                           # 2847 "C:\Program Files (x86)\HI-TECH Software\PICC-18\9.80\include\pic18f2221.h"
   623  0000                     STKPTR equ 0FFCh ;# 
   624                           # 2871 "C:\Program Files (x86)\HI-TECH Software\PICC-18\9.80\include\pic18f2221.h"
   625  0000                     TOS equ 0FFDh ;# 
   626                           # 2883 "C:\Program Files (x86)\HI-TECH Software\PICC-18\9.80\include\pic18f2221.h"
   627  0000                     TOSL equ 0FFDh ;# 
   628                           # 2895 "C:\Program Files (x86)\HI-TECH Software\PICC-18\9.80\include\pic18f2221.h"
   629  0000                     TOSH equ 0FFEh ;# 
   630                           # 2907 "C:\Program Files (x86)\HI-TECH Software\PICC-18\9.80\include\pic18f2221.h"
   631  0000                     TOSU equ 0FFFh ;# 
   632                           # 19 "C:\Program Files (x86)\HI-TECH Software\PICC-18\9.80\include\pic18f2221.h"
   633  0000                     PORTA equ 0F80h ;# 
   634                           # 90 "C:\Program Files (x86)\HI-TECH Software\PICC-18\9.80\include\pic18f2221.h"
   635  0000                     PORTB equ 0F81h ;# 
   636                           # 139 "C:\Program Files (x86)\HI-TECH Software\PICC-18\9.80\include\pic18f2221.h"
   637  0000                     PORTC equ 0F82h ;# 
   638                           # 192 "C:\Program Files (x86)\HI-TECH Software\PICC-18\9.80\include\pic18f2221.h"
   639  0000                     PORTE equ 0F84h ;# 
   640                           # 317 "C:\Program Files (x86)\HI-TECH Software\PICC-18\9.80\include\pic18f2221.h"
   641  0000                     LATA equ 0F89h ;# 
   642                           # 370 "C:\Program Files (x86)\HI-TECH Software\PICC-18\9.80\include\pic18f2221.h"
   643  0000                     LATB equ 0F8Ah ;# 
   644                           # 423 "C:\Program Files (x86)\HI-TECH Software\PICC-18\9.80\include\pic18f2221.h"
   645  0000                     LATC equ 0F8Bh ;# 
   646                           # 476 "C:\Program Files (x86)\HI-TECH Software\PICC-18\9.80\include\pic18f2221.h"
   647  0000                     TRISA equ 0F92h ;# 
   648                           # 481 "C:\Program Files (x86)\HI-TECH Software\PICC-18\9.80\include\pic18f2221.h"
   649  0000                     DDRA equ 0F92h ;# 
   650                           # 539 "C:\Program Files (x86)\HI-TECH Software\PICC-18\9.80\include\pic18f2221.h"
   651  0000                     TRISB equ 0F93h ;# 
   652                           # 544 "C:\Program Files (x86)\HI-TECH Software\PICC-18\9.80\include\pic18f2221.h"
   653  0000                     DDRB equ 0F93h ;# 
   654                           # 602 "C:\Program Files (x86)\HI-TECH Software\PICC-18\9.80\include\pic18f2221.h"
   655  0000                     TRISC equ 0F94h ;# 
   656                           # 607 "C:\Program Files (x86)\HI-TECH Software\PICC-18\9.80\include\pic18f2221.h"
   657  0000                     DDRC equ 0F94h ;# 
   658                           # 665 "C:\Program Files (x86)\HI-TECH Software\PICC-18\9.80\include\pic18f2221.h"
   659  0000                     OSCTUNE equ 0F9Bh ;# 
   660                           # 687 "C:\Program Files (x86)\HI-TECH Software\PICC-18\9.80\include\pic18f2221.h"
   661  0000                     PIE1 equ 0F9Dh ;# 
   662                           # 713 "C:\Program Files (x86)\HI-TECH Software\PICC-18\9.80\include\pic18f2221.h"
   663  0000                     PIR1 equ 0F9Eh ;# 
   664                           # 747 "C:\Program Files (x86)\HI-TECH Software\PICC-18\9.80\include\pic18f2221.h"
   665  0000                     IPR1 equ 0F9Fh ;# 
   666                           # 773 "C:\Program Files (x86)\HI-TECH Software\PICC-18\9.80\include\pic18f2221.h"
   667  0000                     PIE2 equ 0FA0h ;# 
   668                           # 796 "C:\Program Files (x86)\HI-TECH Software\PICC-18\9.80\include\pic18f2221.h"
   669  0000                     PIR2 equ 0FA1h ;# 
   670                           # 819 "C:\Program Files (x86)\HI-TECH Software\PICC-18\9.80\include\pic18f2221.h"
   671  0000                     IPR2 equ 0FA2h ;# 
   672                           # 842 "C:\Program Files (x86)\HI-TECH Software\PICC-18\9.80\include\pic18f2221.h"
   673  0000                     EECON1 equ 0FA6h ;# 
   674                           # 865 "C:\Program Files (x86)\HI-TECH Software\PICC-18\9.80\include\pic18f2221.h"
   675  0000                     EECON2 equ 0FA7h ;# 
   676                           # 877 "C:\Program Files (x86)\HI-TECH Software\PICC-18\9.80\include\pic18f2221.h"
   677  0000                     EEDATA equ 0FA8h ;# 
   678                           # 889 "C:\Program Files (x86)\HI-TECH Software\PICC-18\9.80\include\pic18f2221.h"
   679  0000                     EEADR equ 0FA9h ;# 
   680                           # 901 "C:\Program Files (x86)\HI-TECH Software\PICC-18\9.80\include\pic18f2221.h"
   681  0000                     RCSTA equ 0FABh ;# 
   682                           # 906 "C:\Program Files (x86)\HI-TECH Software\PICC-18\9.80\include\pic18f2221.h"
   683  0000                     RCSTA1 equ 0FABh ;# 
   684                           # 954 "C:\Program Files (x86)\HI-TECH Software\PICC-18\9.80\include\pic18f2221.h"
   685  0000                     TXSTA equ 0FACh ;# 
   686                           # 959 "C:\Program Files (x86)\HI-TECH Software\PICC-18\9.80\include\pic18f2221.h"
   687  0000                     TXSTA1 equ 0FACh ;# 
   688                           # 1053 "C:\Program Files (x86)\HI-TECH Software\PICC-18\9.80\include\pic18f2221.h"
   689  0000                     TXREG equ 0FADh ;# 
   690                           # 1058 "C:\Program Files (x86)\HI-TECH Software\PICC-18\9.80\include\pic18f2221.h"
   691  0000                     TXREG1 equ 0FADh ;# 
   692                           # 1076 "C:\Program Files (x86)\HI-TECH Software\PICC-18\9.80\include\pic18f2221.h"
   693  0000                     RCREG equ 0FAEh ;# 
   694                           # 1081 "C:\Program Files (x86)\HI-TECH Software\PICC-18\9.80\include\pic18f2221.h"
   695  0000                     RCREG1 equ 0FAEh ;# 
   696                           # 1099 "C:\Program Files (x86)\HI-TECH Software\PICC-18\9.80\include\pic18f2221.h"
   697  0000                     SPBRG equ 0FAFh ;# 
   698                           # 1104 "C:\Program Files (x86)\HI-TECH Software\PICC-18\9.80\include\pic18f2221.h"
   699  0000                     SPBRG1 equ 0FAFh ;# 
   700                           # 1122 "C:\Program Files (x86)\HI-TECH Software\PICC-18\9.80\include\pic18f2221.h"
   701  0000                     SPBRGH equ 0FB0h ;# 
   702                           # 1134 "C:\Program Files (x86)\HI-TECH Software\PICC-18\9.80\include\pic18f2221.h"
   703  0000                     T3CON equ 0FB1h ;# 
   704                           # 1175 "C:\Program Files (x86)\HI-TECH Software\PICC-18\9.80\include\pic18f2221.h"
   705  0000                     TMR3 equ 0FB2h ;# 
   706                           # 1187 "C:\Program Files (x86)\HI-TECH Software\PICC-18\9.80\include\pic18f2221.h"
   707  0000                     TMR3L equ 0FB2h ;# 
   708                           # 1199 "C:\Program Files (x86)\HI-TECH Software\PICC-18\9.80\include\pic18f2221.h"
   709  0000                     TMR3H equ 0FB3h ;# 
   710                           # 1211 "C:\Program Files (x86)\HI-TECH Software\PICC-18\9.80\include\pic18f2221.h"
   711  0000                     CMCON equ 0FB4h ;# 
   712                           # 1244 "C:\Program Files (x86)\HI-TECH Software\PICC-18\9.80\include\pic18f2221.h"
   713  0000                     CVRCON equ 0FB5h ;# 
   714                           # 1270 "C:\Program Files (x86)\HI-TECH Software\PICC-18\9.80\include\pic18f2221.h"
   715  0000                     ECCP1AS equ 0FB6h ;# 
   716                           # 1293 "C:\Program Files (x86)\HI-TECH Software\PICC-18\9.80\include\pic18f2221.h"
   717  0000                     ECCP1DEL equ 0FB7h ;# 
   718                           # 1298 "C:\Program Files (x86)\HI-TECH Software\PICC-18\9.80\include\pic18f2221.h"
   719  0000                     PWM1CON equ 0FB7h ;# 
   720                           # 1318 "C:\Program Files (x86)\HI-TECH Software\PICC-18\9.80\include\pic18f2221.h"
   721  0000                     BAUDCON equ 0FB8h ;# 
   722                           # 1323 "C:\Program Files (x86)\HI-TECH Software\PICC-18\9.80\include\pic18f2221.h"
   723  0000                     BAUDCTL equ 0FB8h ;# 
   724                           # 1383 "C:\Program Files (x86)\HI-TECH Software\PICC-18\9.80\include\pic18f2221.h"
   725  0000                     CCP2CON equ 0FBAh ;# 
   726                           # 1409 "C:\Program Files (x86)\HI-TECH Software\PICC-18\9.80\include\pic18f2221.h"
   727  0000                     CCPR2 equ 0FBBh ;# 
   728                           # 1421 "C:\Program Files (x86)\HI-TECH Software\PICC-18\9.80\include\pic18f2221.h"
   729  0000                     CCPR2L equ 0FBBh ;# 
   730                           # 1433 "C:\Program Files (x86)\HI-TECH Software\PICC-18\9.80\include\pic18f2221.h"
   731  0000                     CCPR2H equ 0FBCh ;# 
   732                           # 1445 "C:\Program Files (x86)\HI-TECH Software\PICC-18\9.80\include\pic18f2221.h"
   733  0000                     CCP1CON equ 0FBDh ;# 
   734                           # 1450 "C:\Program Files (x86)\HI-TECH Software\PICC-18\9.80\include\pic18f2221.h"
   735  0000                     ECCP1CON equ 0FBDh ;# 
   736                           # 1496 "C:\Program Files (x86)\HI-TECH Software\PICC-18\9.80\include\pic18f2221.h"
   737  0000                     CCPR1 equ 0FBEh ;# 
   738                           # 1508 "C:\Program Files (x86)\HI-TECH Software\PICC-18\9.80\include\pic18f2221.h"
   739  0000                     CCPR1L equ 0FBEh ;# 
   740                           # 1520 "C:\Program Files (x86)\HI-TECH Software\PICC-18\9.80\include\pic18f2221.h"
   741  0000                     CCPR1H equ 0FBFh ;# 
   742                           # 1532 "C:\Program Files (x86)\HI-TECH Software\PICC-18\9.80\include\pic18f2221.h"
   743  0000                     ADCON2 equ 0FC0h ;# 
   744                           # 1555 "C:\Program Files (x86)\HI-TECH Software\PICC-18\9.80\include\pic18f2221.h"
   745  0000                     ADCON1 equ 0FC1h ;# 
   746                           # 1588 "C:\Program Files (x86)\HI-TECH Software\PICC-18\9.80\include\pic18f2221.h"
   747  0000                     ADCON0 equ 0FC2h ;# 
   748                           # 1643 "C:\Program Files (x86)\HI-TECH Software\PICC-18\9.80\include\pic18f2221.h"
   749  0000                     ADRES equ 0FC3h ;# 
   750                           # 1655 "C:\Program Files (x86)\HI-TECH Software\PICC-18\9.80\include\pic18f2221.h"
   751  0000                     ADRESL equ 0FC3h ;# 
   752                           # 1667 "C:\Program Files (x86)\HI-TECH Software\PICC-18\9.80\include\pic18f2221.h"
   753  0000                     ADRESH equ 0FC4h ;# 
   754                           # 1679 "C:\Program Files (x86)\HI-TECH Software\PICC-18\9.80\include\pic18f2221.h"
   755  0000                     SSPCON2 equ 0FC5h ;# 
   756                           # 1706 "C:\Program Files (x86)\HI-TECH Software\PICC-18\9.80\include\pic18f2221.h"
   757  0000                     SSPCON1 equ 0FC6h ;# 
   758                           # 1728 "C:\Program Files (x86)\HI-TECH Software\PICC-18\9.80\include\pic18f2221.h"
   759  0000                     SSPSTAT equ 0FC7h ;# 
   760                           # 1835 "C:\Program Files (x86)\HI-TECH Software\PICC-18\9.80\include\pic18f2221.h"
   761  0000                     SSPADD equ 0FC8h ;# 
   762                           # 1847 "C:\Program Files (x86)\HI-TECH Software\PICC-18\9.80\include\pic18f2221.h"
   763  0000                     SSPBUF equ 0FC9h ;# 
   764                           # 1859 "C:\Program Files (x86)\HI-TECH Software\PICC-18\9.80\include\pic18f2221.h"
   765  0000                     T2CON equ 0FCAh ;# 
   766                           # 1889 "C:\Program Files (x86)\HI-TECH Software\PICC-18\9.80\include\pic18f2221.h"
   767  0000                     PR2 equ 0FCBh ;# 
   768                           # 1894 "C:\Program Files (x86)\HI-TECH Software\PICC-18\9.80\include\pic18f2221.h"
   769  0000                     MEMCON equ 0FCBh ;# 
   770                           # 1912 "C:\Program Files (x86)\HI-TECH Software\PICC-18\9.80\include\pic18f2221.h"
   771  0000                     TMR2 equ 0FCCh ;# 
   772                           # 1924 "C:\Program Files (x86)\HI-TECH Software\PICC-18\9.80\include\pic18f2221.h"
   773  0000                     T1CON equ 0FCDh ;# 
   774                           # 1961 "C:\Program Files (x86)\HI-TECH Software\PICC-18\9.80\include\pic18f2221.h"
   775  0000                     TMR1 equ 0FCEh ;# 
   776                           # 1973 "C:\Program Files (x86)\HI-TECH Software\PICC-18\9.80\include\pic18f2221.h"
   777  0000                     TMR1L equ 0FCEh ;# 
   778                           # 1985 "C:\Program Files (x86)\HI-TECH Software\PICC-18\9.80\include\pic18f2221.h"
   779  0000                     TMR1H equ 0FCFh ;# 
   780                           # 1997 "C:\Program Files (x86)\HI-TECH Software\PICC-18\9.80\include\pic18f2221.h"
   781  0000                     RCON equ 0FD0h ;# 
   782                           # 2043 "C:\Program Files (x86)\HI-TECH Software\PICC-18\9.80\include\pic18f2221.h"
   783  0000                     WDTCON equ 0FD1h ;# 
   784                           # 2058 "C:\Program Files (x86)\HI-TECH Software\PICC-18\9.80\include\pic18f2221.h"
   785  0000                     HLVDCON equ 0FD2h ;# 
   786                           # 2063 "C:\Program Files (x86)\HI-TECH Software\PICC-18\9.80\include\pic18f2221.h"
   787  0000                     LVDCON equ 0FD2h ;# 
   788                           # 2131 "C:\Program Files (x86)\HI-TECH Software\PICC-18\9.80\include\pic18f2221.h"
   789  0000                     OSCCON equ 0FD3h ;# 
   790                           # 2156 "C:\Program Files (x86)\HI-TECH Software\PICC-18\9.80\include\pic18f2221.h"
   791  0000                     T0CON equ 0FD5h ;# 
   792                           # 2180 "C:\Program Files (x86)\HI-TECH Software\PICC-18\9.80\include\pic18f2221.h"
   793  0000                     TMR0 equ 0FD6h ;# 
   794                           # 2192 "C:\Program Files (x86)\HI-TECH Software\PICC-18\9.80\include\pic18f2221.h"
   795  0000                     TMR0L equ 0FD6h ;# 
   796                           # 2204 "C:\Program Files (x86)\HI-TECH Software\PICC-18\9.80\include\pic18f2221.h"
   797  0000                     TMR0H equ 0FD7h ;# 
   798                           # 2216 "C:\Program Files (x86)\HI-TECH Software\PICC-18\9.80\include\pic18f2221.h"
   799  0000                     STATUS equ 0FD8h ;# 
   800                           # 2247 "C:\Program Files (x86)\HI-TECH Software\PICC-18\9.80\include\pic18f2221.h"
   801  0000                     FSR2 equ 0FD9h ;# 
   802                           # 2259 "C:\Program Files (x86)\HI-TECH Software\PICC-18\9.80\include\pic18f2221.h"
   803  0000                     FSR2L equ 0FD9h ;# 
   804                           # 2271 "C:\Program Files (x86)\HI-TECH Software\PICC-18\9.80\include\pic18f2221.h"
   805  0000                     FSR2H equ 0FDAh ;# 
   806                           # 2283 "C:\Program Files (x86)\HI-TECH Software\PICC-18\9.80\include\pic18f2221.h"
   807  0000                     PLUSW2 equ 0FDBh ;# 
   808                           # 2295 "C:\Program Files (x86)\HI-TECH Software\PICC-18\9.80\include\pic18f2221.h"
   809  0000                     PREINC2 equ 0FDCh ;# 
   810                           # 2307 "C:\Program Files (x86)\HI-TECH Software\PICC-18\9.80\include\pic18f2221.h"
   811  0000                     POSTDEC2 equ 0FDDh ;# 
   812                           # 2319 "C:\Program Files (x86)\HI-TECH Software\PICC-18\9.80\include\pic18f2221.h"
   813  0000                     POSTINC2 equ 0FDEh ;# 
   814                           # 2331 "C:\Program Files (x86)\HI-TECH Software\PICC-18\9.80\include\pic18f2221.h"
   815  0000                     INDF2 equ 0FDFh ;# 
   816                           # 2343 "C:\Program Files (x86)\HI-TECH Software\PICC-18\9.80\include\pic18f2221.h"
   817  0000                     BSR equ 0FE0h ;# 
   818                           # 2355 "C:\Program Files (x86)\HI-TECH Software\PICC-18\9.80\include\pic18f2221.h"
   819  0000                     FSR1 equ 0FE1h ;# 
   820                           # 2367 "C:\Program Files (x86)\HI-TECH Software\PICC-18\9.80\include\pic18f2221.h"
   821  0000                     FSR1L equ 0FE1h ;# 
   822                           # 2379 "C:\Program Files (x86)\HI-TECH Software\PICC-18\9.80\include\pic18f2221.h"
   823  0000                     FSR1H equ 0FE2h ;# 
   824                           # 2391 "C:\Program Files (x86)\HI-TECH Software\PICC-18\9.80\include\pic18f2221.h"
   825  0000                     PLUSW1 equ 0FE3h ;# 
   826                           # 2403 "C:\Program Files (x86)\HI-TECH Software\PICC-18\9.80\include\pic18f2221.h"
   827  0000                     PREINC1 equ 0FE4h ;# 
   828                           # 2415 "C:\Program Files (x86)\HI-TECH Software\PICC-18\9.80\include\pic18f2221.h"
   829  0000                     POSTDEC1 equ 0FE5h ;# 
   830                           # 2427 "C:\Program Files (x86)\HI-TECH Software\PICC-18\9.80\include\pic18f2221.h"
   831  0000                     POSTINC1 equ 0FE6h ;# 
   832                           # 2439 "C:\Program Files (x86)\HI-TECH Software\PICC-18\9.80\include\pic18f2221.h"
   833  0000                     INDF1 equ 0FE7h ;# 
   834                           # 2451 "C:\Program Files (x86)\HI-TECH Software\PICC-18\9.80\include\pic18f2221.h"
   835  0000                     WREG equ 0FE8h ;# 
   836                           # 2474 "C:\Program Files (x86)\HI-TECH Software\PICC-18\9.80\include\pic18f2221.h"
   837  0000                     FSR0 equ 0FE9h ;# 
   838                           # 2486 "C:\Program Files (x86)\HI-TECH Software\PICC-18\9.80\include\pic18f2221.h"
   839  0000                     FSR0L equ 0FE9h ;# 
   840                           # 2498 "C:\Program Files (x86)\HI-TECH Software\PICC-18\9.80\include\pic18f2221.h"
   841  0000                     FSR0H equ 0FEAh ;# 
   842                           # 2510 "C:\Program Files (x86)\HI-TECH Software\PICC-18\9.80\include\pic18f2221.h"
   843  0000                     PLUSW0 equ 0FEBh ;# 
   844                           # 2522 "C:\Program Files (x86)\HI-TECH Software\PICC-18\9.80\include\pic18f2221.h"
   845  0000                     PREINC0 equ 0FECh ;# 
   846                           # 2534 "C:\Program Files (x86)\HI-TECH Software\PICC-18\9.80\include\pic18f2221.h"
   847  0000                     POSTDEC0 equ 0FEDh ;# 
   848                           # 2546 "C:\Program Files (x86)\HI-TECH Software\PICC-18\9.80\include\pic18f2221.h"
   849  0000                     POSTINC0 equ 0FEEh ;# 
   850                           # 2558 "C:\Program Files (x86)\HI-TECH Software\PICC-18\9.80\include\pic18f2221.h"
   851  0000                     INDF0 equ 0FEFh ;# 
   852                           # 2570 "C:\Program Files (x86)\HI-TECH Software\PICC-18\9.80\include\pic18f2221.h"
   853  0000                     INTCON3 equ 0FF0h ;# 
   854                           # 2599 "C:\Program Files (x86)\HI-TECH Software\PICC-18\9.80\include\pic18f2221.h"
   855  0000                     INTCON2 equ 0FF1h ;# 
   856                           # 2626 "C:\Program Files (x86)\HI-TECH Software\PICC-18\9.80\include\pic18f2221.h"
   857  0000                     INTCON equ 0FF2h ;# 
   858                           # 2690 "C:\Program Files (x86)\HI-TECH Software\PICC-18\9.80\include\pic18f2221.h"
   859  0000                     PROD equ 0FF3h ;# 
   860                           # 2702 "C:\Program Files (x86)\HI-TECH Software\PICC-18\9.80\include\pic18f2221.h"
   861  0000                     PRODL equ 0FF3h ;# 
   862                           # 2714 "C:\Program Files (x86)\HI-TECH Software\PICC-18\9.80\include\pic18f2221.h"
   863  0000                     PRODH equ 0FF4h ;# 
   864                           # 2726 "C:\Program Files (x86)\HI-TECH Software\PICC-18\9.80\include\pic18f2221.h"
   865  0000                     TABLAT equ 0FF5h ;# 
   866                           # 2738 "C:\Program Files (x86)\HI-TECH Software\PICC-18\9.80\include\pic18f2221.h"
   867  0000                     TBLPTR equ 0FF6h ;# 
   868                           # 2751 "C:\Program Files (x86)\HI-TECH Software\PICC-18\9.80\include\pic18f2221.h"
   869  0000                     TBLPTRL equ 0FF6h ;# 
   870                           # 2763 "C:\Program Files (x86)\HI-TECH Software\PICC-18\9.80\include\pic18f2221.h"
   871  0000                     TBLPTRH equ 0FF7h ;# 
   872                           # 2775 "C:\Program Files (x86)\HI-TECH Software\PICC-18\9.80\include\pic18f2221.h"
   873  0000                     TBLPTRU equ 0FF8h ;# 
   874                           # 2788 "C:\Program Files (x86)\HI-TECH Software\PICC-18\9.80\include\pic18f2221.h"
   875  0000                     PCLAT equ 0FF9h ;# 
   876                           # 2793 "C:\Program Files (x86)\HI-TECH Software\PICC-18\9.80\include\pic18f2221.h"
   877  0000                     PC equ 0FF9h ;# 
   878                           # 2811 "C:\Program Files (x86)\HI-TECH Software\PICC-18\9.80\include\pic18f2221.h"
   879  0000                     PCL equ 0FF9h ;# 
   880                           # 2823 "C:\Program Files (x86)\HI-TECH Software\PICC-18\9.80\include\pic18f2221.h"
   881  0000                     PCLATH equ 0FFAh ;# 
   882                           # 2835 "C:\Program Files (x86)\HI-TECH Software\PICC-18\9.80\include\pic18f2221.h"
   883  0000                     PCLATU equ 0FFBh ;# 
   884                           # 2847 "C:\Program Files (x86)\HI-TECH Software\PICC-18\9.80\include\pic18f2221.h"
   885  0000                     STKPTR equ 0FFCh ;# 
   886                           # 2871 "C:\Program Files (x86)\HI-TECH Software\PICC-18\9.80\include\pic18f2221.h"
   887  0000                     TOS equ 0FFDh ;# 
   888                           # 2883 "C:\Program Files (x86)\HI-TECH Software\PICC-18\9.80\include\pic18f2221.h"
   889  0000                     TOSL equ 0FFDh ;# 
   890                           # 2895 "C:\Program Files (x86)\HI-TECH Software\PICC-18\9.80\include\pic18f2221.h"
   891  0000                     TOSH equ 0FFEh ;# 
   892                           # 2907 "C:\Program Files (x86)\HI-TECH Software\PICC-18\9.80\include\pic18f2221.h"
   893  0000                     TOSU equ 0FFFh ;# 
   894                           	FNCALL	_main,_configSystem
   895                           	FNCALL	_main,_configSoftPWM
   896                           	FNCALL	_main,_configTimer
   897                           	FNCALL	_main,_configI2C
   898                           	FNCALL	_main,_readADC
   899                           	FNCALL	_configSystem,_setupOsc
   900                           	FNROOT	_main
   901                           	FNCALL	intlevel2,_isr
   902                           	global	intlevel2
   903                           	FNROOT	intlevel2
   904                           	global	_maxDuty
   905                           	global	_stressTest
   906                           psect	idataCOMRAM,class=CODE,space=0,delta=1
   907                           global __pidataCOMRAM
   908  0004DA                     __pidataCOMRAM:
   909                           	file	"C:\Users\Mike\Desktop\SVN\Serial Motor Controller\PIC18F2221\softPWM.h"
   910                           	line	23
   911                           
   912                           ;initializer for _maxDuty
   913  0004DA  0064               	dw	(064h)&0ffffh
   914                           	file	"C:\Users\Mike\Desktop\SVN\Serial Motor Controller\PIC18F2221\main.c"
   915                           	line	12
   916                           
   917                           ;initializer for _stressTest
   918  0004DC  01                 	db	low(01h)
   919                           	global	_dutyCycle1
   920                           	global	_dutyCycle2
   921                           	global	_dutyCycle3
   922                           	global	_dutyCycle4
   923                           	global	_dutyCycle5
   924                           	global	_dutyCycle6
   925                           	global	_i2c_buff_index
   926                           	global	_i2c_rx_buff
   927                           	global	_i2c_tx_buff
   928                           	global	_counter
   929                           	global	_down
   930                           	global	_potEnabled
   931                           	global	_pwmCounter
   932                           	global	_v_sspstat
   933                           	global	_newData
   934                           	global	_ADCON0
   935  0000                     _ADCON0	set	0xFC2
   936                           	global	_ADCON1
   937  0000                     _ADCON1	set	0xFC1
   938                           	global	_ADCON2
   939  0000                     _ADCON2	set	0xFC0
   940                           	global	_ADRESH
   941  0000                     _ADRESH	set	0xFC4
   942                           	global	_ADRESL
   943  0000                     _ADRESL	set	0xFC3
   944                           	global	_INTCONbits
   945  0000                     _INTCONbits	set	0xFF2
   946                           	global	_OSCCON
   947  0000                     _OSCCON	set	0xFD3
   948                           	global	_PORTA
   949  0000                     _PORTA	set	0xF80
   950                           	global	_PORTB
   951  0000                     _PORTB	set	0xF81
   952                           	global	_PORTC
   953  0000                     _PORTC	set	0xF82
   954                           	global	_PR2
   955  0000                     _PR2	set	0xFCB
   956                           	global	_SSPADD
   957  0000                     _SSPADD	set	0xFC8
   958                           	global	_SSPBUF
   959  0000                     _SSPBUF	set	0xFC9
   960                           	global	_SSPCON1
   961  0000                     _SSPCON1	set	0xFC6
   962                           	global	_SSPCON2
   963  0000                     _SSPCON2	set	0xFC5
   964                           	global	_SSPSTAT
   965  0000                     _SSPSTAT	set	0xFC7
   966                           	global	_T0CONbits
   967  0000                     _T0CONbits	set	0xFD5
   968                           	global	_T2CONbits
   969  0000                     _T2CONbits	set	0xFCA
   970                           	global	_TRISA
   971  0000                     _TRISA	set	0xF92
   972                           	global	_TRISB
   973  0000                     _TRISB	set	0xF93
   974                           	global	_TRISC
   975  0000                     _TRISC	set	0xF94
   976                           	global	_WDTCON
   977  0000                     _WDTCON	set	0xFD1
   978                           	global	_ACKSTAT
   979  0000                     _ACKSTAT	set	0x7E2E
   980                           	global	_CKP
   981  0000                     _CKP	set	0x7E34
   982                           	global	_GO_nDONE
   983  0000                     _GO_nDONE	set	0x7E11
   984                           	global	_IOFS
   985  0000                     _IOFS	set	0x7E9A
   986                           	global	_PEIE
   987  0000                     _PEIE	set	0x7F96
   988                           	global	_PLLEN
   989  0000                     _PLLEN	set	0x7CDE
   990                           	global	_RA0
   991  0000                     _RA0	set	0x7C00
   992                           	global	_RA1
   993  0000                     _RA1	set	0x7C01
   994                           	global	_RA2
   995  0000                     _RA2	set	0x7C02
   996                           	global	_RA3
   997  0000                     _RA3	set	0x7C03
   998                           	global	_RA4
   999  0000                     _RA4	set	0x7C04
  1000                           	global	_RA6
  1001  0000                     _RA6	set	0x7C06
  1002                           	global	_RA7
  1003  0000                     _RA7	set	0x7C07
  1004                           	global	_RB1
  1005  0000                     _RB1	set	0x7C09
  1006                           	global	_RB5
  1007  0000                     _RB5	set	0x7C0D
  1008                           	global	_RB7
  1009  0000                     _RB7	set	0x7C0F
  1010                           	global	_RC5
  1011  0000                     _RC5	set	0x7C15
  1012                           	global	_SSPIF
  1013  0000                     _SSPIF	set	0x7CF3
  1014                           	global	_SSPOV
  1015  0000                     _SSPOV	set	0x7E36
  1016                           	global	_TMR0IE
  1017  0000                     _TMR0IE	set	0x7F95
  1018                           	global	_TMR2IE
  1019  0000                     _TMR2IE	set	0x7CE9
  1020                           	global	_TMR2IF
  1021  0000                     _TMR2IF	set	0x7CF1
  1022                           ; #config settings
  1023                           	file	"C:\Users\Mike\AppData\Local\Temp\s630."
  1024                           	line	#
  1025                           psect	cinit,class=CODE,delta=1,reloc=2
  1026                           global __pcinit
  1027  000418                     __pcinit:
  1028                           global start_initialization
  1029  000418                     start_initialization:
  1030                           
  1031                           psect	bitbssCOMRAM,class=COMRAM,bit,space=1
  1032                           global __pbitbssCOMRAM
  1033  000198                     __pbitbssCOMRAM:
  1034                           	global	_newData
  1035  000198                     _newData:
  1036  000198                            ds      1
  1037                           psect	bssCOMRAM,class=COMRAM,space=1
  1038                           global __pbssCOMRAM
  1039  000019                     __pbssCOMRAM:
  1040                           	global	_dutyCycle1
  1041  000019                     _dutyCycle1:
  1042  000019                            ds      2
  1043                           	global	_dutyCycle2
  1044  00001B                     _dutyCycle2:
  1045  00001B                            ds      2
  1046                           	global	_dutyCycle3
  1047  00001D                     _dutyCycle3:
  1048  00001D                            ds      2
  1049                           	global	_dutyCycle4
  1050  00001F                     _dutyCycle4:
  1051  00001F                            ds      2
  1052                           	global	_dutyCycle5
  1053  000021                     _dutyCycle5:
  1054  000021                            ds      2
  1055                           	global	_dutyCycle6
  1056  000023                     _dutyCycle6:
  1057  000023                            ds      2
  1058                           	global	_i2c_buff_index
  1059  000025                     _i2c_buff_index:
  1060  000025                            ds      2
  1061                           	global	_i2c_rx_buff
  1062  000027                     _i2c_rx_buff:
  1063  000027                            ds      2
  1064                           	global	_i2c_tx_buff
  1065  000029                     _i2c_tx_buff:
  1066  000029                            ds      2
  1067                           	global	_counter
  1068  00002B                     _counter:
  1069  00002B                            ds      1
  1070                           	global	_down
  1071  00002C                     _down:
  1072  00002C                            ds      1
  1073                           	global	_potEnabled
  1074  00002D                     _potEnabled:
  1075  00002D                            ds      1
  1076                           	global	_pwmCounter
  1077  00002E                     _pwmCounter:
  1078  00002E                            ds      1
  1079                           	global	_v_sspstat
  1080  00002F                     _v_sspstat:
  1081  00002F                            ds      1
  1082                           psect	dataCOMRAM,class=COMRAM,space=1
  1083                           global __pdataCOMRAM
  1084  000030                     __pdataCOMRAM:
  1085                           	file	"C:\Users\Mike\Desktop\SVN\Serial Motor Controller\PIC18F2221\softPWM.h"
  1086                           	line	23
  1087                           	global	_maxDuty
  1088                           	global	_maxDuty
  1089  000030                     _maxDuty:
  1090  000030                            ds      2
  1091                           psect	dataCOMRAM
  1092                           	file	"C:\Users\Mike\Desktop\SVN\Serial Motor Controller\PIC18F2221\main.c"
  1093                           	line	12
  1094                           	global	_stressTest
  1095                           	global	_stressTest
  1096  000032                     _stressTest:
  1097  000032                            ds      1
  1098                           psect	cinit
  1099                           ; Clear objects allocated to BITCOMRAM (1 bytes)
  1100                           	global __pbitbssCOMRAM
  1101  000418  6A33               clrf	(__pbitbssCOMRAM/8+0)&0xffh,c
  1102                           ; Clear objects allocated to COMRAM (23 bytes)
  1103                           	global __pbssCOMRAM
  1104  00041A  EE00  F019         lfsr	0,__pbssCOMRAM
  1105  00041E  0E17               movlw	23
  1106  000420                     clear_0:
  1107  000420  6AEE               clrf	postinc0,c
  1108  000422  06E8               decf	wreg
  1109  000424  E1FD               bnz	clear_0
  1110                           ; Initialize objects allocated to COMRAM (3 bytes)
  1111                           	global __pidataCOMRAM
  1112                           	; load TBLPTR registers with __pidataCOMRAM
  1113  000426  0EDA               	movlw	low (__pidataCOMRAM)
  1114  000428  6EF6               	movwf	tblptrl
  1115  00042A  0E04               	movlw	high(__pidataCOMRAM)
  1116  00042C  6EF7               	movwf	tblptrh
  1117  00042E  0E00               	movlw	low highword(__pidataCOMRAM)
  1118  000430  6EF8               	movwf	tblptru
  1119  000432  0009               	tblrd*+ ;fetch initializer
  1120  000434  CFF5 F030          	movff	tablat, __pdataCOMRAM+0		
  1121  000438  0009               	tblrd*+ ;fetch initializer
  1122  00043A  CFF5 F031          	movff	tablat, __pdataCOMRAM+1		
  1123  00043E  0009               	tblrd*+ ;fetch initializer
  1124  000440  CFF5 F032          	movff	tablat, __pdataCOMRAM+2		
  1125                           psect cinit,class=CODE,delta=1
  1126                           global end_of_initialization
  1127                           
  1128                           ;End of C runtime variable initialization code
  1129                           
  1130  000444                     end_of_initialization:
  1131  000444  0100               movlb 0
  1132  000446  EF61  F001         goto _main	;jump to C main() function
  1133                           psect	cstackCOMRAM,class=COMRAM,space=1
  1134                           global __pcstackCOMRAM
  1135  000001                     __pcstackCOMRAM:
  1136                           	global	?_configSoftPWM
  1137  000001                     ?_configSoftPWM:	; 0 bytes @ 0x0
  1138                           	global	?_configTimer
  1139  000001                     ?_configTimer:	; 0 bytes @ 0x0
  1140                           	global	?_setupOsc
  1141  000001                     ?_setupOsc:	; 0 bytes @ 0x0
  1142                           	global	?_configSystem
  1143  000001                     ?_configSystem:	; 0 bytes @ 0x0
  1144                           	global	?_configI2C
  1145  000001                     ?_configI2C:	; 0 bytes @ 0x0
  1146                           	global	?_main
  1147  000001                     ?_main:	; 0 bytes @ 0x0
  1148                           	global	?_isr
  1149  000001                     ?_isr:	; 0 bytes @ 0x0
  1150                           	global	??_isr
  1151  000001                     ??_isr:	; 0 bytes @ 0x0
  1152                           	global	?_readADC
  1153  000001                     ?_readADC:	; 1 bytes @ 0x0
  1154  000001                     	ds   17
  1155                           	global	isr@size
  1156  000012                     isr@size:	; 1 bytes @ 0x11
  1157  000012                     	ds   1
  1158                           	global	??_configSoftPWM
  1159  000013                     ??_configSoftPWM:	; 0 bytes @ 0x12
  1160                           	global	??_configTimer
  1161  000013                     ??_configTimer:	; 0 bytes @ 0x12
  1162                           	global	??_readADC
  1163  000013                     ??_readADC:	; 0 bytes @ 0x12
  1164                           	global	??_setupOsc
  1165  000013                     ??_setupOsc:	; 0 bytes @ 0x12
  1166                           	global	??_configI2C
  1167  000013                     ??_configI2C:	; 0 bytes @ 0x12
  1168  000013                     	ds   1
  1169                           	global	??_configSystem
  1170  000014                     ??_configSystem:	; 0 bytes @ 0x13
  1171  000014                     	ds   1
  1172                           	global	readADC@result
  1173  000015                     readADC@result:	; 2 bytes @ 0x14
  1174  000015                     	ds   2
  1175                           	global	??_main
  1176  000017                     ??_main:	; 0 bytes @ 0x16
  1177  000017                     	ds   2
  1178                           ;!
  1179                           ;!Data Sizes:
  1180                           ;!    Strings     0
  1181                           ;!    Constant    0
  1182                           ;!    Data        3
  1183                           ;!    BSS         23
  1184                           ;!    Persistent  0
  1185                           ;!    Stack       0
  1186                           ;!
  1187                           ;!Auto Spaces:
  1188                           ;!    Space          Size  Autos    Used
  1189                           ;!    COMRAM          127     24      51
  1190                           ;!    BANK0           128      0       0
  1191                           ;!    BANK1           256      0       0
  1192                           
  1193                           ;!
  1194                           ;!Pointer List with Targets:
  1195                           ;!
  1196                           ;!    None.
  1197                           
  1198                           
  1199                           ;!
  1200                           ;!Critical Paths under _main in COMRAM
  1201                           ;!
  1202                           ;!    _main->_readADC
  1203                           ;!    _configSystem->_setupOsc
  1204                           ;!
  1205                           ;!Critical Paths under _isr in COMRAM
  1206                           ;!
  1207                           ;!    None.
  1208                           ;!
  1209                           ;!Critical Paths under _main in BANK0
  1210                           ;!
  1211                           ;!    None.
  1212                           ;!
  1213                           ;!Critical Paths under _isr in BANK0
  1214                           ;!
  1215                           ;!    None.
  1216                           ;!
  1217                           ;!Critical Paths under _main in BANK1
  1218                           ;!
  1219                           ;!    None.
  1220                           ;!
  1221                           ;!Critical Paths under _isr in BANK1
  1222                           ;!
  1223                           ;!    None.
  1224                           
  1225 ;;
  1226 ;;Main: autosize = 0, tempsize = 2, incstack = 0, save=0
  1227 ;;
  1228                           
  1229                           ;!
  1230                           ;!Call Graph Tables:
  1231                           ;!
  1232                           ;! ---------------------------------------------------------------------------------
  1233                           ;! (Depth) Function   	        Calls       Base Space   Used Autos Params    Refs
  1234                           ;! ---------------------------------------------------------------------------------
  1235                           ;! (0) _main                                                 2     2      0      45
  1236                           ;!                                             22 COMRAM     2     2      0
  1237                           ;!                       _configSystem
  1238                           ;!                      _configSoftPWM
  1239                           ;!                        _configTimer
  1240                           ;!                          _configI2C
  1241                           ;!                            _readADC
  1242                           ;! ---------------------------------------------------------------------------------
  1243                           ;! (1) _configSystem                                         0     0      0       0
  1244                           ;!                           _setupOsc
  1245                           ;! ---------------------------------------------------------------------------------
  1246                           ;! (2) _setupOsc                                             1     1      0       0
  1247                           ;!                                             18 COMRAM     1     1      0
  1248                           ;! ---------------------------------------------------------------------------------
  1249                           ;! (1) _configI2C                                            0     0      0       0
  1250                           ;! ---------------------------------------------------------------------------------
  1251                           ;! (1) _configSoftPWM                                        0     0      0       0
  1252                           ;! ---------------------------------------------------------------------------------
  1253                           ;! (1) _configTimer                                          0     0      0       0
  1254                           ;! ---------------------------------------------------------------------------------
  1255                           ;! (1) _readADC                                              4     4      0      45
  1256                           ;!                                             18 COMRAM     4     4      0
  1257                           ;! ---------------------------------------------------------------------------------
  1258                           ;! Estimated maximum stack depth 2
  1259                           ;! ---------------------------------------------------------------------------------
  1260                           ;! (Depth) Function   	        Calls       Base Space   Used Autos Params    Refs
  1261                           ;! ---------------------------------------------------------------------------------
  1262                           ;! (3) _isr                                                 18    18      0       0
  1263                           ;!                                              0 COMRAM    18    18      0
  1264                           ;! ---------------------------------------------------------------------------------
  1265                           ;! Estimated maximum stack depth 3
  1266                           ;! ---------------------------------------------------------------------------------
  1267                           ;!
  1268                           ;! Call Graph Graphs:
  1269                           ;!
  1270                           ;! _main (ROOT)
  1271                           ;!   _configSystem
  1272                           ;!     _setupOsc
  1273                           ;!   _configSoftPWM
  1274                           ;!   _configTimer
  1275                           ;!   _configI2C
  1276                           ;!   _readADC
  1277                           ;!
  1278                           ;! _isr (ROOT)
  1279                           ;!
  1280                           
  1281                           ;! Address spaces:
  1282                           
  1283                           ;!Name               Size   Autos  Total    Cost      Usage
  1284                           ;!BIGRAM             1FF      0       0       8        0.0%
  1285                           ;!EEDATA             100      0       0       0        0.0%
  1286                           ;!BITBANK1           100      0       0       5        0.0%
  1287                           ;!BANK1              100      0       0       6        0.0%
  1288                           ;!BITBANK0            80      0       0       3        0.0%
  1289                           ;!BANK0               80      0       0       4        0.0%
  1290                           ;!BITCOMRAM           7F      0       1       0        0.8%
  1291                           ;!COMRAM              7F     18      33       1       40.2%
  1292                           ;!BITSFR               0      0       0      40        0.0%
  1293                           ;!SFR                  0      0       0      40        0.0%
  1294                           ;!STACK                0      0       2       2        0.0%
  1295                           ;!NULL                 0      0       0       0        0.0%
  1296                           ;!ABS                  0      0      33       7        0.0%
  1297                           ;!DATA                 0      0      35       9        0.0%
  1298                           ;!CODE                 0      0       0       0        0.0%
  1299                           
  1300                           	global	_main
  1301                           
  1302 ;; *************** function _main *****************
  1303 ;; Defined at:
  1304 ;;		line 99 in file "C:\Users\Mike\Desktop\SVN\Serial Motor Controller\PIC18F2221\main.c"
  1305 ;; Parameters:    Size  Location     Type
  1306 ;;		None
  1307 ;; Auto vars:     Size  Location     Type
  1308 ;;		None
  1309 ;; Return value:  Size  Location     Type
  1310 ;;		None               void
  1311 ;; Registers used:
  1312 ;;		wreg, fsr0l, fsr0h, fsr1l, fsr1h, fsr2l, fsr2h, status,2, status,0, pclat, tosl, structret, tblptrl, tblptrh, tblptr
       u, prodl, prodh, bsr, cstack
  1313 ;; Tracked objects:
  1314 ;;		On entry : 0/0
  1315 ;;		On exit  : 0/0
  1316 ;;		Unchanged: 0/0
  1317 ;; Data sizes:     COMRAM   BANK0   BANK1
  1318 ;;      Params:         0       0       0
  1319 ;;      Locals:         0       0       0
  1320 ;;      Temps:          2       0       0
  1321 ;;      Totals:         2       0       0
  1322 ;;Total ram usage:        2 bytes
  1323 ;; Hardware stack levels required when called:    3
  1324 ;; This function calls:
  1325 ;;		_configSystem
  1326 ;;		_configSoftPWM
  1327 ;;		_configTimer
  1328 ;;		_configI2C
  1329 ;;		_readADC
  1330 ;; This function is called by:
  1331 ;;		Startup code after reset
  1332 ;; This function uses a non-reentrant model
  1333 ;;
  1334                           psect	text0,class=CODE,space=0,reloc=2
  1335                           global __ptext0
  1336  0002C2                     __ptext0:
  1337                           psect	text0
  1338                           	file	"C:\Users\Mike\Desktop\SVN\Serial Motor Controller\PIC18F2221\main.c"
  1339                           	line	99
  1340                           	global	__size_of_main
  1341  0000                     	__size_of_main	equ	__end_of_main-_main
  1342                           	
  1343  0002C2                     _main:
  1344                           	opt	stack 28
  1345                           	line	102
  1346                           	
  1347  0002C2                     l963:
  1348                           ;main.c: 102: configSystem();
  1349  0002C2  EC39  F002         	call	_configSystem	;wreg free
  1350                           	line	103
  1351                           	
  1352  0002C6                     l965:
  1353                           ;main.c: 103: configSoftPWM();
  1354  0002C6  EC4D  F002         	call	_configSoftPWM	;wreg free
  1355                           	line	104
  1356                           	
  1357  0002CA                     l967:
  1358                           ;main.c: 104: configTimer();
  1359  0002CA  EC59  F002         	call	_configTimer	;wreg free
  1360                           	line	105
  1361                           	
  1362  0002CE                     l969:
  1363                           ;main.c: 105: configI2C();
  1364  0002CE  EC63  F002         	call	_configI2C	;wreg free
  1365  0002D2  D000               	goto	l971
  1366                           	line	109
  1367                           ;main.c: 109: while (1) {
  1368                           	
  1369  0002D4                     l111:
  1370                           	line	115
  1371                           	
  1372  0002D4                     l971:
  1373                           ;main.c: 115: if(newData){
  1374  0002D4  0100               	movlb	(_newData/8) >> 8
  1375  0002D6  A033               	btfss	(_newData/8),c,(_newData)&7
  1376  0002D8  D001               	goto	u101
  1377  0002DA  D001               	goto	u100
  1378  0002DC                     u101:
  1379  0002DC  D7FB               	goto	l971
  1380  0002DE                     u100:
  1381  0002DE  D060               	goto	l1003
  1382                           	line	116
  1383                           	
  1384  0002E0                     l973:
  1385                           ;main.c: 116: switch(i2c_rx_buff[0]){
  1386  0002E0  D05F               	goto	l1003
  1387                           	line	118
  1388                           ;main.c: 118: case 0x00:
  1389                           	
  1390  0002E2                     l114:
  1391                           	line	119
  1392                           	
  1393  0002E2                     l975:
  1394                           ;main.c: 119: if (i2c_rx_buff[1] > 32) {
  1395  0002E2  EE20  F028         	lfsr	2,(c:_i2c_rx_buff)+01h	;volatile
  1396  0002E6  0E20               	movlw	(021h-1)
  1397  0002E8  64DF               	cpfsgt	indf2
  1398  0002EA  D001               	goto	u111
  1399  0002EC  D001               	goto	u110
  1400  0002EE                     u111:
  1401  0002EE  D00B               	goto	l981
  1402  0002F0                     u110:
  1403                           	line	120
  1404                           	
  1405  0002F0                     l977:
  1406                           ;main.c: 120: dutyCycle2 = i2c_rx_buff[1] - 32;
  1407  0002F0  0EE0               	movlw	low(-32)
  1408  0002F2  2428               	addwf	(0+((c:_i2c_rx_buff)+01h)),c,w	;volatile
  1409                           	
  1410  0002F4  6E1B               	movwf	((c:_dutyCycle2)),c
  1411  0002F6  6A1C               	clrf	1+((c:_dutyCycle2)),c
  1412  0002F8  0EFF               	movlw	high(-32)
  1413  0002FA  221C               	addwfc	1+((c:_dutyCycle2)),c
  1414                           	line	121
  1415                           	
  1416  0002FC                     l979:
  1417                           ;main.c: 121: dutyCycle1 = 0;
  1418  0002FC  0E00               	movlw	high(0)
  1419  0002FE  6E1A               	movwf	((c:_dutyCycle1+1)),c
  1420  000300  0E00               	movlw	low(0)
  1421  000302  6E19               	movwf	((c:_dutyCycle1)),c
  1422                           	line	122
  1423                           ;main.c: 122: }
  1424  000304  D012               	goto	l985
  1425                           	line	123
  1426                           	
  1427  000306                     l115:
  1428                           	line	124
  1429                           	
  1430  000306                     l981:
  1431                           ;main.c: 123: else{
  1432                           ;main.c: 124: dutyCycle1 = 32 - i2c_rx_buff[1];
  1433  000306  5028               	movf	(0+((c:_i2c_rx_buff)+01h)),c,w	;volatile
  1434  000308  6E17               	movwf	(??_main+0+0)&0ffh,c
  1435  00030A  6A18               	clrf	(??_main+0+0+1)&0ffh,c
  1436                           
  1437  00030C  1E17               	comf	(??_main+0+0),c
  1438  00030E  1E18               	comf	(??_main+0+1),c
  1439  000310  4A17               	infsnz	(??_main+0+0),c
  1440  000312  2A18               	incf	(??_main+0+1),c
  1441  000314  0E20               	movlw	low(020h)
  1442  000316  2417               	addwf	(??_main+0+0),c,w
  1443                           	
  1444  000318  6E19               	movwf	((c:_dutyCycle1)),c
  1445  00031A  0E00               	movlw	high(020h)
  1446  00031C  2018               	addwfc	(??_main+0+1),c,w
  1447  00031E  6E1A               	movwf	1+((c:_dutyCycle1)),c
  1448                           	line	125
  1449                           	
  1450  000320                     l983:
  1451                           ;main.c: 125: dutyCycle2 = 0;
  1452  000320  0E00               	movlw	high(0)
  1453  000322  6E1C               	movwf	((c:_dutyCycle2+1)),c
  1454  000324  0E00               	movlw	low(0)
  1455  000326  6E1B               	movwf	((c:_dutyCycle2)),c
  1456  000328  D000               	goto	l985
  1457                           	line	126
  1458                           	
  1459  00032A                     l116:
  1460                           	line	127
  1461                           	
  1462  00032A                     l985:
  1463                           ;main.c: 126: }
  1464                           ;main.c: 127: newData = 0;
  1465  00032A  0100               	movlb	(_newData/8) >> 8
  1466  00032C  9033               	bcf	(_newData/8),c,(_newData)&7
  1467                           	line	128
  1468                           ;main.c: 128: break;
  1469  00032E  D7D2               	goto	l971
  1470                           	line	130
  1471                           ;main.c: 130: case 0x01:
  1472                           	
  1473  000330                     l118:
  1474                           	line	131
  1475                           	
  1476  000330                     l987:
  1477                           ;main.c: 131: if (i2c_rx_buff[1] > 32) {
  1478  000330  EE20  F028         	lfsr	2,(c:_i2c_rx_buff)+01h	;volatile
  1479  000334  0E20               	movlw	(021h-1)
  1480  000336  64DF               	cpfsgt	indf2
  1481  000338  D001               	goto	u121
  1482  00033A  D001               	goto	u120
  1483  00033C                     u121:
  1484  00033C  D00B               	goto	l993
  1485  00033E                     u120:
  1486                           	line	132
  1487                           	
  1488  00033E                     l989:
  1489                           ;main.c: 132: dutyCycle4 = i2c_rx_buff[1] - 32;
  1490  00033E  0EE0               	movlw	low(-32)
  1491  000340  2428               	addwf	(0+((c:_i2c_rx_buff)+01h)),c,w	;volatile
  1492                           	
  1493  000342  6E1F               	movwf	((c:_dutyCycle4)),c
  1494  000344  6A20               	clrf	1+((c:_dutyCycle4)),c
  1495  000346  0EFF               	movlw	high(-32)
  1496  000348  2220               	addwfc	1+((c:_dutyCycle4)),c
  1497                           	line	133
  1498                           	
  1499  00034A                     l991:
  1500                           ;main.c: 133: dutyCycle3 = 0;
  1501  00034A  0E00               	movlw	high(0)
  1502  00034C  6E1E               	movwf	((c:_dutyCycle3+1)),c
  1503  00034E  0E00               	movlw	low(0)
  1504  000350  6E1D               	movwf	((c:_dutyCycle3)),c
  1505                           	line	134
  1506                           ;main.c: 134: }
  1507  000352  D012               	goto	l997
  1508                           	line	135
  1509                           	
  1510  000354                     l119:
  1511                           	line	136
  1512                           	
  1513  000354                     l993:
  1514                           ;main.c: 135: else{
  1515                           ;main.c: 136: dutyCycle3 = 32 - i2c_rx_buff[1];
  1516  000354  5028               	movf	(0+((c:_i2c_rx_buff)+01h)),c,w	;volatile
  1517  000356  6E17               	movwf	(??_main+0+0)&0ffh,c
  1518  000358  6A18               	clrf	(??_main+0+0+1)&0ffh,c
  1519                           
  1520  00035A  1E17               	comf	(??_main+0+0),c
  1521  00035C  1E18               	comf	(??_main+0+1),c
  1522  00035E  4A17               	infsnz	(??_main+0+0),c
  1523  000360  2A18               	incf	(??_main+0+1),c
  1524  000362  0E20               	movlw	low(020h)
  1525  000364  2417               	addwf	(??_main+0+0),c,w
  1526                           	
  1527  000366  6E1D               	movwf	((c:_dutyCycle3)),c
  1528  000368  0E00               	movlw	high(020h)
  1529  00036A  2018               	addwfc	(??_main+0+1),c,w
  1530  00036C  6E1E               	movwf	1+((c:_dutyCycle3)),c
  1531                           	line	137
  1532                           	
  1533  00036E                     l995:
  1534                           ;main.c: 137: dutyCycle4 = 0;
  1535  00036E  0E00               	movlw	high(0)
  1536  000370  6E20               	movwf	((c:_dutyCycle4+1)),c
  1537  000372  0E00               	movlw	low(0)
  1538  000374  6E1F               	movwf	((c:_dutyCycle4)),c
  1539  000376  D000               	goto	l997
  1540                           	line	138
  1541                           	
  1542  000378                     l120:
  1543                           	line	139
  1544                           	
  1545  000378                     l997:
  1546                           ;main.c: 138: }
  1547                           ;main.c: 139: newData = 0;
  1548  000378  0100               	movlb	(_newData/8) >> 8
  1549  00037A  9033               	bcf	(_newData/8),c,(_newData)&7
  1550                           	line	140
  1551                           ;main.c: 140: break;
  1552  00037C  D7AB               	goto	l971
  1553                           	line	142
  1554                           ;main.c: 142: case 0x10:
  1555                           	
  1556  00037E                     l121:
  1557                           	line	143
  1558                           ;main.c: 143: i2c_tx_buff[0] = dutyCycle1;
  1559  00037E  C019  F029         	movff	(c:_dutyCycle1),(c:_i2c_tx_buff)
  1560                           	line	144
  1561                           ;main.c: 144: break;
  1562  000382  D7A8               	goto	l971
  1563                           	line	146
  1564                           ;main.c: 146: case 0x20:
  1565                           	
  1566  000384                     l122:
  1567                           	line	147
  1568                           ;main.c: 147: i2c_tx_buff[0] = dutyCycle2;
  1569  000384  C01B  F029         	movff	(c:_dutyCycle2),(c:_i2c_tx_buff)
  1570                           	line	148
  1571                           ;main.c: 148: break;
  1572  000388  D7A5               	goto	l971
  1573                           	line	150
  1574                           ;main.c: 150: case 100:
  1575                           	
  1576  00038A                     l123:
  1577                           	line	151
  1578                           	
  1579  00038A                     l999:
  1580                           ;main.c: 151: i2c_tx_buff[0] = readADC();
  1581  00038A  ECE9  F001         	call	_readADC	;wreg free
  1582  00038E  6E29               	movwf	((c:_i2c_tx_buff)),c
  1583                           	line	152
  1584                           ;main.c: 152: break;
  1585  000390  D7A1               	goto	l971
  1586                           	line	154
  1587                           ;main.c: 154: case 0x99:
  1588                           	
  1589  000392                     l124:
  1590                           	line	155
  1591                           ;main.c: 155: potEnabled = i2c_rx_buff[1];
  1592  000392  C028  F02D         	movff	0+((c:_i2c_rx_buff)+01h),(c:_potEnabled)	;volatile
  1593                           	line	156
  1594                           ;main.c: 156: break;
  1595  000396  D79E               	goto	l971
  1596                           	line	157
  1597                           ;main.c: 157: default:
  1598                           	
  1599  000398                     l125:
  1600                           	line	159
  1601                           ;main.c: 159: newData = 0;
  1602  000398  0100               	movlb	(_newData/8) >> 8
  1603  00039A  9033               	bcf	(_newData/8),c,(_newData)&7
  1604                           	line	160
  1605                           ;main.c: 160: break;
  1606  00039C  D79B               	goto	l971
  1607                           	line	161
  1608                           	
  1609  00039E                     l1001:
  1610                           ;main.c: 161: }
  1611  00039E  D79A               	goto	l971
  1612                           	line	116
  1613                           	
  1614  0003A0                     l113:
  1615                           	
  1616  0003A0                     l1003:
  1617  0003A0  5027               	movf	((c:_i2c_rx_buff)),c,w	;volatile
  1618                           	; Switch size 1, requested type "space"
  1619                           ; Number of cases is 6, Range of values is 0 to 153
  1620                           ; switch strategies available:
  1621                           ; Name         Instructions Cycles
  1622                           ; simple_byte           19    10 (average)
  1623                           ;	Chosen strategy is simple_byte
  1624                           
  1625  0003A2  0A00               	xorlw	0^0	; case 0
  1626  0003A4  B4D8               	skipnz
  1627  0003A6  D79D               	goto	l975
  1628  0003A8  0A01               	xorlw	1^0	; case 1
  1629  0003AA  B4D8               	skipnz
  1630  0003AC  D7C1               	goto	l987
  1631  0003AE  0A11               	xorlw	16^1	; case 16
  1632  0003B0  B4D8               	skipnz
  1633  0003B2  D7E5               	goto	l121
  1634  0003B4  0A30               	xorlw	32^16	; case 32
  1635  0003B6  B4D8               	skipnz
  1636  0003B8  D7E5               	goto	l122
  1637  0003BA  0A44               	xorlw	100^32	; case 100
  1638  0003BC  B4D8               	skipnz
  1639  0003BE  D7E5               	goto	l999
  1640  0003C0  0AFD               	xorlw	153^100	; case 153
  1641  0003C2  B4D8               	skipnz
  1642  0003C4  D7E6               	goto	l124
  1643  0003C6  D7E8               	goto	l125
  1644                           
  1645                           	line	161
  1646                           	
  1647  0003C8                     l117:
  1648  0003C8  D785               	goto	l971
  1649                           	line	163
  1650                           	
  1651  0003CA                     l112:
  1652  0003CA  D784               	goto	l971
  1653                           	line	167
  1654                           	
  1655  0003CC                     l126:
  1656                           	line	109
  1657  0003CC  D783               	goto	l971
  1658                           	
  1659  0003CE                     l127:
  1660                           	line	168
  1661                           	
  1662  0003CE                     l128:
  1663                           	global	start
  1664  0003CE  EF5F  F001         	goto	start
  1665                           	opt stack 0
  1666                           GLOBAL	__end_of_main
  1667  0003D2                     	__end_of_main:
  1668                           	signat	_main,88
  1669                           	global	_configSystem
  1670                           
  1671 ;; *************** function _configSystem *****************
  1672 ;; Defined at:
  1673 ;;		line 35 in file "C:\Users\Mike\Desktop\SVN\Serial Motor Controller\PIC18F2221\main.c"
  1674 ;; Parameters:    Size  Location     Type
  1675 ;;		None
  1676 ;; Auto vars:     Size  Location     Type
  1677 ;;		None
  1678 ;; Return value:  Size  Location     Type
  1679 ;;		None               void
  1680 ;; Registers used:
  1681 ;;		wreg, status,2, cstack
  1682 ;; Tracked objects:
  1683 ;;		On entry : 0/0
  1684 ;;		On exit  : 0/0
  1685 ;;		Unchanged: 0/0
  1686 ;; Data sizes:     COMRAM   BANK0   BANK1
  1687 ;;      Params:         0       0       0
  1688 ;;      Locals:         0       0       0
  1689 ;;      Temps:          0       0       0
  1690 ;;      Totals:         0       0       0
  1691 ;;Total ram usage:        0 bytes
  1692 ;; Hardware stack levels used:    1
  1693 ;; Hardware stack levels required when called:    2
  1694 ;; This function calls:
  1695 ;;		_setupOsc
  1696 ;; This function is called by:
  1697 ;;		_main
  1698 ;; This function uses a non-reentrant model
  1699 ;;
  1700                           psect	text1,class=CODE,space=0,reloc=2
  1701                           global __ptext1
  1702  000472                     __ptext1:
  1703                           psect	text1
  1704                           	file	"C:\Users\Mike\Desktop\SVN\Serial Motor Controller\PIC18F2221\main.c"
  1705                           	line	35
  1706                           	global	__size_of_configSystem
  1707  0000                     	__size_of_configSystem	equ	__end_of_configSystem-_configSystem
  1708                           	
  1709  000472                     _configSystem:
  1710                           	opt	stack 28
  1711                           	line	36
  1712                           	
  1713  000472                     l887:
  1714                           ;main.c: 36: setupOsc();
  1715  000472  EC25  F002         	call	_setupOsc	;wreg free
  1716                           	line	38
  1717                           	
  1718  000476                     l889:
  1719                           ;main.c: 38: TRISA = 0x00;
  1720  000476  0E00               	movlw	low(0)
  1721  000478  6E92               	movwf	((c:3986)),c	;volatile
  1722                           	line	39
  1723                           	
  1724  00047A                     l891:
  1725                           ;main.c: 39: TRISB = 0x00;
  1726  00047A  0E00               	movlw	low(0)
  1727  00047C  6E93               	movwf	((c:3987)),c	;volatile
  1728                           	line	40
  1729                           	
  1730  00047E                     l893:
  1731                           ;main.c: 40: TRISC = 0x00;
  1732  00047E  0E00               	movlw	low(0)
  1733  000480  6E94               	movwf	((c:3988)),c	;volatile
  1734                           	line	41
  1735                           	
  1736  000482                     l895:
  1737                           ;main.c: 41: PORTA = 0x00;
  1738  000482  0E00               	movlw	low(0)
  1739  000484  6E80               	movwf	((c:3968)),c	;volatile
  1740                           	line	42
  1741                           	
  1742  000486                     l897:
  1743                           ;main.c: 42: PORTB = 0x00;
  1744  000486  0E00               	movlw	low(0)
  1745  000488  6E81               	movwf	((c:3969)),c	;volatile
  1746                           	line	43
  1747                           	
  1748  00048A                     l899:
  1749                           ;main.c: 43: PORTC = 0x00;
  1750  00048A  0E00               	movlw	low(0)
  1751  00048C  6E82               	movwf	((c:3970)),c	;volatile
  1752                           	line	46
  1753                           	
  1754  00048E                     l901:
  1755                           ;main.c: 46: ADCON1 = 0x0F;
  1756  00048E  0E0F               	movlw	low(0Fh)
  1757  000490  6EC1               	movwf	((c:4033)),c	;volatile
  1758                           	line	49
  1759                           	
  1760  000492                     l903:
  1761                           ;main.c: 49: RB7 = 0;
  1762  000492  9E81               	bcf	c:(31759/8),(31759)&7	;volatile
  1763                           	line	50
  1764                           	
  1765  000494                     l905:
  1766                           ;main.c: 50: RA4 = 1;
  1767  000494  8880               	bsf	c:(31748/8),(31748)&7	;volatile
  1768                           	line	51
  1769                           	
  1770  000496                     l907:
  1771                           ;main.c: 51: RC5 = 1;
  1772  000496  8A82               	bsf	c:(31765/8),(31765)&7	;volatile
  1773                           	line	52
  1774                           	
  1775  000498                     l87:
  1776  000498  0012               	return
  1777                           	opt stack 0
  1778                           GLOBAL	__end_of_configSystem
  1779  00049A                     	__end_of_configSystem:
  1780                           	signat	_configSystem,88
  1781                           	global	_setupOsc
  1782                           
  1783 ;; *************** function _setupOsc *****************
  1784 ;; Defined at:
  1785 ;;		line 16 in file "C:\Users\Mike\Desktop\SVN\Serial Motor Controller\PIC18F2221\main.c"
  1786 ;; Parameters:    Size  Location     Type
  1787 ;;		None
  1788 ;; Auto vars:     Size  Location     Type
  1789 ;;		None
  1790 ;; Return value:  Size  Location     Type
  1791 ;;		None               void
  1792 ;; Registers used:
  1793 ;;		wreg, status,2
  1794 ;; Tracked objects:
  1795 ;;		On entry : 0/0
  1796 ;;		On exit  : 0/0
  1797 ;;		Unchanged: 0/0
  1798 ;; Data sizes:     COMRAM   BANK0   BANK1
  1799 ;;      Params:         0       0       0
  1800 ;;      Locals:         0       0       0
  1801 ;;      Temps:          1       0       0
  1802 ;;      Totals:         1       0       0
  1803 ;;Total ram usage:        1 bytes
  1804 ;; Hardware stack levels used:    1
  1805 ;; Hardware stack levels required when called:    1
  1806 ;; This function calls:
  1807 ;;		Nothing
  1808 ;; This function is called by:
  1809 ;;		_configSystem
  1810 ;; This function uses a non-reentrant model
  1811 ;;
  1812                           psect	text2,class=CODE,space=0,reloc=2
  1813                           global __ptext2
  1814  00044A                     __ptext2:
  1815                           psect	text2
  1816                           	file	"C:\Users\Mike\Desktop\SVN\Serial Motor Controller\PIC18F2221\main.c"
  1817                           	line	16
  1818                           	global	__size_of_setupOsc
  1819  0000                     	__size_of_setupOsc	equ	__end_of_setupOsc-_setupOsc
  1820                           	
  1821  00044A                     _setupOsc:
  1822                           	opt	stack 28
  1823                           	line	28
  1824                           	
  1825  00044A                     l879:
  1826                           ;main.c: 28: OSCCON = 0b11110000;
  1827  00044A  0EF0               	movlw	low(0F0h)
  1828  00044C  6ED3               	movwf	((c:4051)),c	;volatile
  1829                           	line	29
  1830                           ;main.c: 29: while(!IOFS);
  1831  00044E  D000               	goto	l81
  1832                           	
  1833  000450                     l82:
  1834                           	
  1835  000450                     l81:
  1836  000450  A4D3               	btfss	c:(32410/8),(32410)&7	;volatile
  1837  000452  D001               	goto	u11
  1838  000454  D001               	goto	u10
  1839  000456                     u11:
  1840  000456  D7FC               	goto	l81
  1841  000458                     u10:
  1842  000458  D000               	goto	l881
  1843                           	
  1844  00045A                     l83:
  1845                           	line	30
  1846                           	
  1847  00045A                     l881:
  1848                           ;main.c: 30: _delay((unsigned long)((10)*(32000000/4000.0)));
  1849  00045A  0E68               	movlw	104
  1850  00045C  6E13               movwf	(??_setupOsc+0+0)&0ffh,c,f
  1851  00045E  0EE4               	movlw	228
  1852  000460                     u2157:
  1853  000460  2EE8               	decfsz	wreg,f
  1854  000462  D7FE               	goto	u2157
  1855  000464  2E13               	decfsz	(??_setupOsc+0+0)&0ffh,c,f
  1856  000466  D7FC               	goto	u2157
  1857  000468  F000               	nop
  1858                           
  1859                           	line	31
  1860                           	
  1861  00046A                     l883:
  1862                           ;main.c: 31: PLLEN = 1;
  1863  00046A  8C9B               	bsf	c:(31966/8),(31966)&7	;volatile
  1864                           	line	32
  1865                           	
  1866  00046C                     l885:
  1867                           ;main.c: 32: WDTCON = 0x00;
  1868  00046C  0E00               	movlw	low(0)
  1869  00046E  6ED1               	movwf	((c:4049)),c	;volatile
  1870                           	line	33
  1871                           	
  1872  000470                     l84:
  1873  000470  0012               	return
  1874                           	opt stack 0
  1875                           GLOBAL	__end_of_setupOsc
  1876  000472                     	__end_of_setupOsc:
  1877                           	signat	_setupOsc,88
  1878                           	global	_configI2C
  1879                           
  1880 ;; *************** function _configI2C *****************
  1881 ;; Defined at:
  1882 ;;		line 54 in file "C:\Users\Mike\Desktop\SVN\Serial Motor Controller\PIC18F2221\main.c"
  1883 ;; Parameters:    Size  Location     Type
  1884 ;;		None
  1885 ;; Auto vars:     Size  Location     Type
  1886 ;;		None
  1887 ;; Return value:  Size  Location     Type
  1888 ;;		None               void
  1889 ;; Registers used:
  1890 ;;		wreg, status,2, status,0
  1891 ;; Tracked objects:
  1892 ;;		On entry : 0/0
  1893 ;;		On exit  : 0/0
  1894 ;;		Unchanged: 0/0
  1895 ;; Data sizes:     COMRAM   BANK0   BANK1
  1896 ;;      Params:         0       0       0
  1897 ;;      Locals:         0       0       0
  1898 ;;      Temps:          0       0       0
  1899 ;;      Totals:         0       0       0
  1900 ;;Total ram usage:        0 bytes
  1901 ;; Hardware stack levels used:    1
  1902 ;; Hardware stack levels required when called:    1
  1903 ;; This function calls:
  1904 ;;		Nothing
  1905 ;; This function is called by:
  1906 ;;		_main
  1907 ;; This function uses a non-reentrant model
  1908 ;;
  1909                           psect	text3,class=CODE,space=0,reloc=2
  1910                           global __ptext3
  1911  0004C6                     __ptext3:
  1912                           psect	text3
  1913                           	file	"C:\Users\Mike\Desktop\SVN\Serial Motor Controller\PIC18F2221\main.c"
  1914                           	line	54
  1915                           	global	__size_of_configI2C
  1916  0000                     	__size_of_configI2C	equ	__end_of_configI2C-_configI2C
  1917                           	
  1918  0004C6                     _configI2C:
  1919                           	opt	stack 29
  1920                           	line	57
  1921                           	
  1922  0004C6                     l909:
  1923                           ;main.c: 57: TRISC |= 1 << 3;
  1924  0004C6  8694               	bsf	(0+(3/8)+(c:3988)),c,(3)&7	;volatile
  1925                           	line	58
  1926                           ;main.c: 58: TRISC |= 1 << 4;
  1927  0004C8  8894               	bsf	(0+(4/8)+(c:3988)),c,(4)&7	;volatile
  1928                           	line	61
  1929                           ;main.c: 61: SSPSTAT |= 1 << 7;
  1930  0004CA  8EC7               	bsf	(0+(7/8)+(c:4039)),c,(7)&7	;volatile
  1931                           	line	64
  1932                           	
  1933  0004CC                     l911:
  1934                           ;main.c: 64: SSPCON1 = 0b00111110;
  1935  0004CC  0E3E               	movlw	low(03Eh)
  1936  0004CE  6EC6               	movwf	((c:4038)),c	;volatile
  1937                           	line	66
  1938                           	
  1939  0004D0                     l913:
  1940                           ;main.c: 66: SSPCON2 |= 1 << 7;
  1941  0004D0  8EC5               	bsf	(0+(7/8)+(c:4037)),c,(7)&7	;volatile
  1942                           	line	67
  1943                           	
  1944  0004D2                     l915:
  1945                           ;main.c: 67: SSPCON2 |= 1 << 0;
  1946  0004D2  80C5               	bsf	(0+(0/8)+(c:4037)),c,(0)&7	;volatile
  1947                           	line	68
  1948                           	
  1949  0004D4                     l917:
  1950                           ;main.c: 68: SSPADD = 0x10;
  1951  0004D4  0E10               	movlw	low(010h)
  1952  0004D6  6EC8               	movwf	((c:4040)),c	;volatile
  1953                           	line	72
  1954                           	
  1955  0004D8                     l90:
  1956  0004D8  0012               	return
  1957                           	opt stack 0
  1958                           GLOBAL	__end_of_configI2C
  1959  0004DA                     	__end_of_configI2C:
  1960                           	signat	_configI2C,88
  1961                           	global	_configSoftPWM
  1962                           
  1963 ;; *************** function _configSoftPWM *****************
  1964 ;; Defined at:
  1965 ;;		line 117 in file "C:\Users\Mike\Desktop\SVN\Serial Motor Controller\PIC18F2221\softPWM.c"
  1966 ;; Parameters:    Size  Location     Type
  1967 ;;		None
  1968 ;; Auto vars:     Size  Location     Type
  1969 ;;		None
  1970 ;; Return value:  Size  Location     Type
  1971 ;;		None               void
  1972 ;; Registers used:
  1973 ;;		wreg, status,2
  1974 ;; Tracked objects:
  1975 ;;		On entry : 0/0
  1976 ;;		On exit  : 0/0
  1977 ;;		Unchanged: 0/0
  1978 ;; Data sizes:     COMRAM   BANK0   BANK1
  1979 ;;      Params:         0       0       0
  1980 ;;      Locals:         0       0       0
  1981 ;;      Temps:          0       0       0
  1982 ;;      Totals:         0       0       0
  1983 ;;Total ram usage:        0 bytes
  1984 ;; Hardware stack levels used:    1
  1985 ;; Hardware stack levels required when called:    1
  1986 ;; This function calls:
  1987 ;;		Nothing
  1988 ;; This function is called by:
  1989 ;;		_main
  1990 ;; This function uses a non-reentrant model
  1991 ;;
  1992                           psect	text4,class=CODE,space=0,reloc=2
  1993                           global __ptext4
  1994  00049A                     __ptext4:
  1995                           psect	text4
  1996                           	file	"C:\Users\Mike\Desktop\SVN\Serial Motor Controller\PIC18F2221\softPWM.c"
  1997                           	line	117
  1998                           	global	__size_of_configSoftPWM
  1999  0000                     	__size_of_configSoftPWM	equ	__end_of_configSoftPWM-_configSoftPWM
  2000                           	
  2001  00049A                     _configSoftPWM:
  2002                           	opt	stack 29
  2003                           	line	119
  2004                           	
  2005  00049A                     l1005:
  2006                           ;softPWM.c: 119: T2CONbits.T2CKPS = 0;
  2007  00049A  0EFC               	movlw	((0 & ((1<<2)-1))<<0)|not (((1<<2)-1)<<0)
  2008  00049C  16CA               	andwf	((c:4042)),c	;volatile
  2009                           	line	121
  2010                           	
  2011  00049E                     l1007:
  2012                           ;softPWM.c: 121: T2CONbits.TOUTPS = 0;
  2013  00049E  96CA               		bcf	((c:4042)),c, 3+0	;volatile
  2014  0004A0  98CA               	bcf	((c:4042)),c, 3+1	;volatile
  2015  0004A2  9ACA               	bcf	((c:4042)),c, 3+2	;volatile
  2016  0004A4  9CCA               	bcf	((c:4042)),c, 3+3	;volatile
  2017                           
  2018                           	line	123
  2019                           	
  2020  0004A6                     l1009:
  2021                           ;softPWM.c: 123: TMR2IE = 1;
  2022  0004A6  829D               	bsf	c:(31977/8),(31977)&7	;volatile
  2023                           	line	126
  2024                           	
  2025  0004A8                     l1011:
  2026                           ;softPWM.c: 126: PEIE = 1;
  2027  0004A8  8CF2               	bsf	c:(32662/8),(32662)&7	;volatile
  2028                           	line	128
  2029                           	
  2030  0004AA                     l1013:
  2031                           ;softPWM.c: 128: PR2 = 255;
  2032  0004AA  68CB               	setf	((c:4043)),c	;volatile
  2033                           	line	131
  2034                           	
  2035  0004AC                     l1015:
  2036                           ;softPWM.c: 131: T2CONbits.TMR2ON = 1;
  2037  0004AC  84CA               	bsf	((c:4042)),c,2	;volatile
  2038                           	line	133
  2039                           	
  2040  0004AE                     l1017:
  2041                           ;softPWM.c: 133: (INTCONbits.GIE = 1);
  2042  0004AE  8EF2               	bsf	((c:4082)),c,7	;volatile
  2043                           	line	134
  2044                           	
  2045  0004B0                     l237:
  2046  0004B0  0012               	return
  2047                           	opt stack 0
  2048                           GLOBAL	__end_of_configSoftPWM
  2049  0004B2                     	__end_of_configSoftPWM:
  2050                           	signat	_configSoftPWM,88
  2051                           	global	_configTimer
  2052                           
  2053 ;; *************** function _configTimer *****************
  2054 ;; Defined at:
  2055 ;;		line 136 in file "C:\Users\Mike\Desktop\SVN\Serial Motor Controller\PIC18F2221\softPWM.c"
  2056 ;; Parameters:    Size  Location     Type
  2057 ;;		None
  2058 ;; Auto vars:     Size  Location     Type
  2059 ;;		None
  2060 ;; Return value:  Size  Location     Type
  2061 ;;		None               void
  2062 ;; Registers used:
  2063 ;;		None
  2064 ;; Tracked objects:
  2065 ;;		On entry : 0/0
  2066 ;;		On exit  : 0/0
  2067 ;;		Unchanged: 0/0
  2068 ;; Data sizes:     COMRAM   BANK0   BANK1
  2069 ;;      Params:         0       0       0
  2070 ;;      Locals:         0       0       0
  2071 ;;      Temps:          0       0       0
  2072 ;;      Totals:         0       0       0
  2073 ;;Total ram usage:        0 bytes
  2074 ;; Hardware stack levels used:    1
  2075 ;; Hardware stack levels required when called:    1
  2076 ;; This function calls:
  2077 ;;		Nothing
  2078 ;; This function is called by:
  2079 ;;		_main
  2080 ;; This function uses a non-reentrant model
  2081 ;;
  2082                           psect	text5,class=CODE,space=0,reloc=2
  2083                           global __ptext5
  2084  0004B2                     __ptext5:
  2085                           psect	text5
  2086                           	file	"C:\Users\Mike\Desktop\SVN\Serial Motor Controller\PIC18F2221\softPWM.c"
  2087                           	line	136
  2088                           	global	__size_of_configTimer
  2089  0000                     	__size_of_configTimer	equ	__end_of_configTimer-_configTimer
  2090                           	
  2091  0004B2                     _configTimer:
  2092                           	opt	stack 29
  2093                           	line	138
  2094                           	
  2095  0004B2                     l1019:
  2096                           ;softPWM.c: 138: T0CONbits.T08BIT = 1;
  2097  0004B2  8CD5               	bsf	((c:4053)),c,6	;volatile
  2098                           	line	139
  2099                           ;softPWM.c: 139: T0CONbits.T0CS = 0;
  2100  0004B4  9AD5               	bcf	((c:4053)),c,5	;volatile
  2101                           	line	141
  2102                           ;softPWM.c: 141: T0CONbits.PSA = 1;
  2103  0004B6  86D5               	bsf	((c:4053)),c,3	;volatile
  2104                           	line	144
  2105                           ;softPWM.c: 144: T0CONbits.T0PS = 111;
  2106  0004B8  80D5               		bsf	((c:4053)),c, 0+0	;volatile
  2107  0004BA  82D5               	bsf	((c:4053)),c, 0+1	;volatile
  2108  0004BC  84D5               	bsf	((c:4053)),c, 0+2	;volatile
  2109                           
  2110                           	line	145
  2111                           ;softPWM.c: 145: TMR0IE = 0;
  2112  0004BE  9AF2               	bcf	c:(32661/8),(32661)&7	;volatile
  2113                           	line	148
  2114                           ;softPWM.c: 148: T0CONbits.TMR0ON = 0;
  2115  0004C0  9ED5               	bcf	((c:4053)),c,7	;volatile
  2116                           	line	150
  2117                           ;softPWM.c: 150: (INTCONbits.GIE = 1);
  2118  0004C2  8EF2               	bsf	((c:4082)),c,7	;volatile
  2119                           	line	151
  2120                           	
  2121  0004C4                     l240:
  2122  0004C4  0012               	return
  2123                           	opt stack 0
  2124                           GLOBAL	__end_of_configTimer
  2125  0004C6                     	__end_of_configTimer:
  2126                           	signat	_configTimer,88
  2127                           	global	_readADC
  2128                           
  2129 ;; *************** function _readADC *****************
  2130 ;; Defined at:
  2131 ;;		line 45 in file "C:\Users\Mike\Desktop\SVN\Serial Motor Controller\PIC18F2221\ADC.c"
  2132 ;; Parameters:    Size  Location     Type
  2133 ;;		None
  2134 ;; Auto vars:     Size  Location     Type
  2135 ;;  result          2   20[COMRAM] unsigned int 
  2136 ;; Return value:  Size  Location     Type
  2137 ;;                  1    wreg      unsigned char 
  2138 ;; Registers used:
  2139 ;;		wreg, status,2, status,0
  2140 ;; Tracked objects:
  2141 ;;		On entry : 0/0
  2142 ;;		On exit  : 0/0
  2143 ;;		Unchanged: 0/0
  2144 ;; Data sizes:     COMRAM   BANK0   BANK1
  2145 ;;      Params:         0       0       0
  2146 ;;      Locals:         2       0       0
  2147 ;;      Temps:          2       0       0
  2148 ;;      Totals:         4       0       0
  2149 ;;Total ram usage:        4 bytes
  2150 ;; Hardware stack levels used:    1
  2151 ;; Hardware stack levels required when called:    1
  2152 ;; This function calls:
  2153 ;;		Nothing
  2154 ;; This function is called by:
  2155 ;;		_main
  2156 ;; This function uses a non-reentrant model
  2157 ;;
  2158                           psect	text6,class=CODE,space=0,reloc=2
  2159                           global __ptext6
  2160  0003D2                     __ptext6:
  2161                           psect	text6
  2162                           	file	"C:\Users\Mike\Desktop\SVN\Serial Motor Controller\PIC18F2221\ADC.c"
  2163                           	line	45
  2164                           	global	__size_of_readADC
  2165  0000                     	__size_of_readADC	equ	__end_of_readADC-_readADC
  2166                           	
  2167  0003D2                     _readADC:
  2168                           	opt	stack 29
  2169                           	line	46
  2170                           	
  2171  0003D2                     l1021:
  2172                           ;ADC.c: 46: GO_nDONE = 1;
  2173  0003D2  82C2               	bsf	c:(32273/8),(32273)&7	;volatile
  2174                           	line	47
  2175                           ;ADC.c: 47: while(GO_nDONE == 1);
  2176  0003D4  D000               	goto	l297
  2177                           	
  2178  0003D6                     l298:
  2179                           	
  2180  0003D6                     l297:
  2181  0003D6  B2C2               	btfsc	c:(32273/8),(32273)&7	;volatile
  2182  0003D8  D001               	goto	u131
  2183  0003DA  D001               	goto	u130
  2184  0003DC                     u131:
  2185  0003DC  D7FC               	goto	l297
  2186  0003DE                     u130:
  2187                           	
  2188  0003DE                     l299:
  2189                           	line	49
  2190                           ;ADC.c: 49: unsigned int result = ADRESH;
  2191  0003DE  CFC4 F015          	movff	(c:4036),(c:readADC@result)	;volatile
  2192  0003E2  6A16               	clrf	((c:readADC@result+1)),c
  2193                           	line	50
  2194                           	
  2195  0003E4                     l1023:
  2196                           ;ADC.c: 50: result = result << 8;
  2197  0003E4  5015               	movf	((c:readADC@result)),c,w
  2198  0003E6  6E16               	movwf	((c:readADC@result+1)),c
  2199  0003E8  6A15               	clrf	((c:readADC@result)),c
  2200                           	line	51
  2201                           	
  2202  0003EA                     l1025:
  2203                           ;ADC.c: 51: result += ADRESL;
  2204  0003EA  50C3               	movf	((c:4035)),c,w	;volatile
  2205  0003EC  2615               	addwf	((c:readADC@result)),c
  2206  0003EE  0E00               	movlw	0
  2207  0003F0  2216               	addwfc	((c:readADC@result+1)),c
  2208                           	line	52
  2209                           	
  2210  0003F2                     l1027:
  2211                           ;ADC.c: 52: result = result/4;
  2212  0003F2  C015  F013         	movff	(c:readADC@result),??_readADC+0+0
  2213  0003F6  C016  F014         	movff	(c:readADC@result+1),??_readADC+0+0+1
  2214  0003FA  90D8               	bcf	status,0
  2215  0003FC  3214               	rrcf	(??_readADC+0+1),c
  2216  0003FE  3213               	rrcf	(??_readADC+0+0),c
  2217  000400  90D8               	bcf	status,0
  2218  000402  3214               	rrcf	(??_readADC+0+1),c
  2219  000404  3213               	rrcf	(??_readADC+0+0),c
  2220  000406  C013  F015         	movff	??_readADC+0+0,(c:readADC@result)
  2221  00040A  C014  F016         	movff	??_readADC+0+1,(c:readADC@result+1)
  2222                           	line	53
  2223                           	
  2224  00040E                     l1029:
  2225                           ;ADC.c: 53: result++;
  2226  00040E  4A15               	infsnz	((c:readADC@result)),c
  2227  000410  2A16               	incf	((c:readADC@result+1)),c
  2228                           	line	55
  2229                           	
  2230  000412                     l1031:
  2231                           ;ADC.c: 55: return result;
  2232  000412  5015               	movf	((c:readADC@result)),c,w
  2233  000414  D000               	goto	l300
  2234                           	
  2235  000416                     l1033:
  2236                           	line	56
  2237                           	
  2238  000416                     l300:
  2239  000416  0012               	return
  2240                           	opt stack 0
  2241                           GLOBAL	__end_of_readADC
  2242  000418                     	__end_of_readADC:
  2243                           	signat	_readADC,89
  2244                           	global	_isr
  2245                           
  2246 ;; *************** function _isr *****************
  2247 ;; Defined at:
  2248 ;;		line 7 in file "C:\Users\Mike\Desktop\SVN\Serial Motor Controller\PIC18F2221\softPWM.c"
  2249 ;; Parameters:    Size  Location     Type
  2250 ;;		None
  2251 ;; Auto vars:     Size  Location     Type
  2252 ;;  size            1   17[COMRAM] unsigned char 
  2253 ;; Return value:  Size  Location     Type
  2254 ;;		None               void
  2255 ;; Registers used:
  2256 ;;		wreg, fsr2l, fsr2h, status,2, status,0
  2257 ;; Tracked objects:
  2258 ;;		On entry : 0/0
  2259 ;;		On exit  : 0/0
  2260 ;;		Unchanged: 0/0
  2261 ;; Data sizes:     COMRAM   BANK0   BANK1
  2262 ;;      Params:         0       0       0
  2263 ;;      Locals:         1       0       0
  2264 ;;      Temps:         17       0       0
  2265 ;;      Totals:        18       0       0
  2266 ;;Total ram usage:       18 bytes
  2267 ;; Hardware stack levels used:    1
  2268 ;; This function calls:
  2269 ;;		Nothing
  2270 ;; This function is called by:
  2271 ;;		Interrupt level 2
  2272 ;; This function uses a non-reentrant model
  2273 ;;
  2274                           psect	intcode,class=CODE,space=0,reloc=2
  2275                           global __pintcode
  2276  000008                     __pintcode:
  2277                           psect	intcode
  2278                           	file	"C:\Users\Mike\Desktop\SVN\Serial Motor Controller\PIC18F2221\softPWM.c"
  2279                           	line	7
  2280                           	global	__size_of_isr
  2281  0000                     	__size_of_isr	equ	__end_of_isr-_isr
  2282                           	
  2283  000008                     _isr:
  2284                           	opt	stack 28
  2285  000008  CFFA F004          	movff	pclat+0,??_isr+3
  2286  00000C  CFFB F005          	movff	pclat+1,??_isr+4
  2287  000010  CFE9 F006          	movff	fsr0l+0,??_isr+5
  2288  000014  CFEA F007          	movff	fsr0h+0,??_isr+6
  2289  000018  CFE1 F008          	movff	fsr1l+0,??_isr+7
  2290  00001C  CFE2 F009          	movff	fsr1h+0,??_isr+8
  2291  000020  CFD9 F00A          	movff	fsr2l+0,??_isr+9
  2292  000024  CFDA F00B          	movff	fsr2h+0,??_isr+10
  2293  000028  CFF3 F00C          	movff	prodl+0,??_isr+11
  2294  00002C  CFF4 F00D          	movff	prodh+0,??_isr+12
  2295  000030  CFF6 F00E          	movff	tblptrl+0,??_isr+13
  2296  000034  CFF7 F00F          	movff	tblptrh+0,??_isr+14
  2297  000038  CFF8 F010          	movff	tblptru+0,??_isr+15
  2298  00003C  CFF5 F011          	movff	tablat+0,??_isr+16
  2299                           	line	9
  2300                           	
  2301  000040                     i2l1035:
  2302                           ;softPWM.c: 9: if (TMR2IF){
  2303  000040  A29E               	btfss	c:(31985/8),(31985)&7	;volatile
  2304  000042  D001               	goto	i2u14_41
  2305  000044  D001               	goto	i2u14_40
  2306  000046                     i2u14_41:
  2307  000046  D083               	goto	i2l1071
  2308  000048                     i2u14_40:
  2309                           	line	10
  2310                           	
  2311  000048                     i2l1037:
  2312                           ;softPWM.c: 10: RB7 = 1;
  2313  000048  8E81               	bsf	c:(31759/8),(31759)&7	;volatile
  2314                           	line	11
  2315                           ;softPWM.c: 11: RC5 = 0;
  2316  00004A  9A82               	bcf	c:(31765/8),(31765)&7	;volatile
  2317                           	line	12
  2318                           # 12 "C:\Users\Mike\Desktop\SVN\Serial Motor Controller\PIC18F2221\softPWM.c"
  2319  00004C  F000               nop ;# 
  2320                           psect	intcode
  2321                           	line	13
  2322                           ;softPWM.c: 13: RC5 = 1;
  2323  00004E  8A82               	bsf	c:(31765/8),(31765)&7	;volatile
  2324                           	line	17
  2325                           	
  2326  000050                     i2l1039:
  2327                           ;softPWM.c: 17: if (dutyCycle1 > pwmCounter)
  2328  000050  502E               	movf	((c:_pwmCounter)),c,w
  2329  000052  6E01               	movwf	(??_isr+0+0)&0ffh,c
  2330  000054  6A02               	clrf	(??_isr+0+0+1)&0ffh,c
  2331                           
  2332  000056  5002               	movf	(??_isr+0+1),c,w
  2333  000058  0A80               	xorlw	80h
  2334  00005A  6E03               	movwf	(??_isr+2+0)&0ffh,c
  2335  00005C  5019               	movf	((c:_dutyCycle1)),c,w
  2336  00005E  5C01               	subwf	(??_isr+0+0),c,w
  2337  000060  501A               	movf	((c:_dutyCycle1+1)),c,w
  2338  000062  0A80               	xorlw	80h
  2339  000064  5803               	subwfb	(??_isr+2+0)&0ffh,c,w
  2340  000066  B0D8               	btfsc	status,0
  2341  000068  D001               	goto	i2u15_41
  2342  00006A  D001               	goto	i2u15_40
  2343  00006C                     i2u15_41:
  2344  00006C  D002               	goto	i2l206
  2345  00006E                     i2u15_40:
  2346                           	line	18
  2347                           	
  2348  00006E                     i2l1041:
  2349                           ;softPWM.c: 18: RA0 = 1; else RA0 = 0;
  2350  00006E  8080               	bsf	c:(31744/8),(31744)&7	;volatile
  2351  000070  D002               	goto	i2l1043
  2352                           	
  2353  000072                     i2l206:
  2354  000072  9080               	bcf	c:(31744/8),(31744)&7	;volatile
  2355  000074  D000               	goto	i2l1043
  2356                           	
  2357  000076                     i2l207:
  2358                           	line	22
  2359                           	
  2360  000076                     i2l1043:
  2361                           ;softPWM.c: 22: if (dutyCycle2 > pwmCounter)
  2362  000076  502E               	movf	((c:_pwmCounter)),c,w
  2363  000078  6E01               	movwf	(??_isr+0+0)&0ffh,c
  2364  00007A  6A02               	clrf	(??_isr+0+0+1)&0ffh,c
  2365                           
  2366  00007C  5002               	movf	(??_isr+0+1),c,w
  2367  00007E  0A80               	xorlw	80h
  2368  000080  6E03               	movwf	(??_isr+2+0)&0ffh,c
  2369  000082  501B               	movf	((c:_dutyCycle2)),c,w
  2370  000084  5C01               	subwf	(??_isr+0+0),c,w
  2371  000086  501C               	movf	((c:_dutyCycle2+1)),c,w
  2372  000088  0A80               	xorlw	80h
  2373  00008A  5803               	subwfb	(??_isr+2+0)&0ffh,c,w
  2374  00008C  B0D8               	btfsc	status,0
  2375  00008E  D001               	goto	i2u16_41
  2376  000090  D001               	goto	i2u16_40
  2377  000092                     i2u16_41:
  2378  000092  D002               	goto	i2l208
  2379  000094                     i2u16_40:
  2380                           	line	23
  2381                           	
  2382  000094                     i2l1045:
  2383                           ;softPWM.c: 23: RA1 = 1; else RA1 = 0;
  2384  000094  8280               	bsf	c:(31745/8),(31745)&7	;volatile
  2385  000096  D002               	goto	i2l1047
  2386                           	
  2387  000098                     i2l208:
  2388  000098  9280               	bcf	c:(31745/8),(31745)&7	;volatile
  2389  00009A  D000               	goto	i2l1047
  2390                           	
  2391  00009C                     i2l209:
  2392                           	line	27
  2393                           	
  2394  00009C                     i2l1047:
  2395                           ;softPWM.c: 27: if (dutyCycle3 > pwmCounter)
  2396  00009C  502E               	movf	((c:_pwmCounter)),c,w
  2397  00009E  6E01               	movwf	(??_isr+0+0)&0ffh,c
  2398  0000A0  6A02               	clrf	(??_isr+0+0+1)&0ffh,c
  2399                           
  2400  0000A2  5002               	movf	(??_isr+0+1),c,w
  2401  0000A4  0A80               	xorlw	80h
  2402  0000A6  6E03               	movwf	(??_isr+2+0)&0ffh,c
  2403  0000A8  501D               	movf	((c:_dutyCycle3)),c,w
  2404  0000AA  5C01               	subwf	(??_isr+0+0),c,w
  2405  0000AC  501E               	movf	((c:_dutyCycle3+1)),c,w
  2406  0000AE  0A80               	xorlw	80h
  2407  0000B0  5803               	subwfb	(??_isr+2+0)&0ffh,c,w
  2408  0000B2  B0D8               	btfsc	status,0
  2409  0000B4  D001               	goto	i2u17_41
  2410  0000B6  D001               	goto	i2u17_40
  2411  0000B8                     i2u17_41:
  2412  0000B8  D002               	goto	i2l210
  2413  0000BA                     i2u17_40:
  2414                           	line	28
  2415                           	
  2416  0000BA                     i2l1049:
  2417                           ;softPWM.c: 28: RA3 = 1; else RA3 = 0;
  2418  0000BA  8680               	bsf	c:(31747/8),(31747)&7	;volatile
  2419  0000BC  D002               	goto	i2l1051
  2420                           	
  2421  0000BE                     i2l210:
  2422  0000BE  9680               	bcf	c:(31747/8),(31747)&7	;volatile
  2423  0000C0  D000               	goto	i2l1051
  2424                           	
  2425  0000C2                     i2l211:
  2426                           	line	32
  2427                           	
  2428  0000C2                     i2l1051:
  2429                           ;softPWM.c: 32: if (dutyCycle4 > pwmCounter)
  2430  0000C2  502E               	movf	((c:_pwmCounter)),c,w
  2431  0000C4  6E01               	movwf	(??_isr+0+0)&0ffh,c
  2432  0000C6  6A02               	clrf	(??_isr+0+0+1)&0ffh,c
  2433                           
  2434  0000C8  5002               	movf	(??_isr+0+1),c,w
  2435  0000CA  0A80               	xorlw	80h
  2436  0000CC  6E03               	movwf	(??_isr+2+0)&0ffh,c
  2437  0000CE  501F               	movf	((c:_dutyCycle4)),c,w
  2438  0000D0  5C01               	subwf	(??_isr+0+0),c,w
  2439  0000D2  5020               	movf	((c:_dutyCycle4+1)),c,w
  2440  0000D4  0A80               	xorlw	80h
  2441  0000D6  5803               	subwfb	(??_isr+2+0)&0ffh,c,w
  2442  0000D8  B0D8               	btfsc	status,0
  2443  0000DA  D001               	goto	i2u18_41
  2444  0000DC  D001               	goto	i2u18_40
  2445  0000DE                     i2u18_41:
  2446  0000DE  D002               	goto	i2l212
  2447  0000E0                     i2u18_40:
  2448                           	line	33
  2449                           	
  2450  0000E0                     i2l1053:
  2451                           ;softPWM.c: 33: RA2 = 1; else RA2 = 0;
  2452  0000E0  8480               	bsf	c:(31746/8),(31746)&7	;volatile
  2453  0000E2  D002               	goto	i2l1055
  2454                           	
  2455  0000E4                     i2l212:
  2456  0000E4  9480               	bcf	c:(31746/8),(31746)&7	;volatile
  2457  0000E6  D000               	goto	i2l1055
  2458                           	
  2459  0000E8                     i2l213:
  2460                           	line	37
  2461                           	
  2462  0000E8                     i2l1055:
  2463                           ;softPWM.c: 37: if (dutyCycle5 > pwmCounter)
  2464  0000E8  502E               	movf	((c:_pwmCounter)),c,w
  2465  0000EA  6E01               	movwf	(??_isr+0+0)&0ffh,c
  2466  0000EC  6A02               	clrf	(??_isr+0+0+1)&0ffh,c
  2467                           
  2468  0000EE  5002               	movf	(??_isr+0+1),c,w
  2469  0000F0  0A80               	xorlw	80h
  2470  0000F2  6E03               	movwf	(??_isr+2+0)&0ffh,c
  2471  0000F4  5021               	movf	((c:_dutyCycle5)),c,w
  2472  0000F6  5C01               	subwf	(??_isr+0+0),c,w
  2473  0000F8  5022               	movf	((c:_dutyCycle5+1)),c,w
  2474  0000FA  0A80               	xorlw	80h
  2475  0000FC  5803               	subwfb	(??_isr+2+0)&0ffh,c,w
  2476  0000FE  B0D8               	btfsc	status,0
  2477  000100  D001               	goto	i2u19_41
  2478  000102  D001               	goto	i2u19_40
  2479  000104                     i2u19_41:
  2480  000104  D002               	goto	i2l214
  2481  000106                     i2u19_40:
  2482                           	line	38
  2483                           	
  2484  000106                     i2l1057:
  2485                           ;softPWM.c: 38: RA7 = 1; else RA7 = 0;
  2486  000106  8E80               	bsf	c:(31751/8),(31751)&7	;volatile
  2487  000108  D002               	goto	i2l1059
  2488                           	
  2489  00010A                     i2l214:
  2490  00010A  9E80               	bcf	c:(31751/8),(31751)&7	;volatile
  2491  00010C  D000               	goto	i2l1059
  2492                           	
  2493  00010E                     i2l215:
  2494                           	line	42
  2495                           	
  2496  00010E                     i2l1059:
  2497                           ;softPWM.c: 42: if (dutyCycle6 > pwmCounter)
  2498  00010E  502E               	movf	((c:_pwmCounter)),c,w
  2499  000110  6E01               	movwf	(??_isr+0+0)&0ffh,c
  2500  000112  6A02               	clrf	(??_isr+0+0+1)&0ffh,c
  2501                           
  2502  000114  5002               	movf	(??_isr+0+1),c,w
  2503  000116  0A80               	xorlw	80h
  2504  000118  6E03               	movwf	(??_isr+2+0)&0ffh,c
  2505  00011A  5023               	movf	((c:_dutyCycle6)),c,w
  2506  00011C  5C01               	subwf	(??_isr+0+0),c,w
  2507  00011E  5024               	movf	((c:_dutyCycle6+1)),c,w
  2508  000120  0A80               	xorlw	80h
  2509  000122  5803               	subwfb	(??_isr+2+0)&0ffh,c,w
  2510  000124  B0D8               	btfsc	status,0
  2511  000126  D001               	goto	i2u20_41
  2512  000128  D001               	goto	i2u20_40
  2513  00012A                     i2u20_41:
  2514  00012A  D002               	goto	i2l216
  2515  00012C                     i2u20_40:
  2516                           	line	43
  2517                           	
  2518  00012C                     i2l1061:
  2519                           ;softPWM.c: 43: RA6 = 1; else RA6 = 0;
  2520  00012C  8C80               	bsf	c:(31750/8),(31750)&7	;volatile
  2521  00012E  D002               	goto	i2l1063
  2522                           	
  2523  000130                     i2l216:
  2524  000130  9C80               	bcf	c:(31750/8),(31750)&7	;volatile
  2525  000132  D000               	goto	i2l1063
  2526                           	
  2527  000134                     i2l217:
  2528                           	line	46
  2529                           	
  2530  000134                     i2l1063:
  2531                           ;softPWM.c: 46: pwmCounter++;
  2532  000134  2A2E               	incf	((c:_pwmCounter)),c
  2533                           	line	47
  2534                           	
  2535  000136                     i2l1065:
  2536                           ;softPWM.c: 47: if (pwmCounter > 31) pwmCounter = 0;
  2537  000136  0E1F               	movlw	(020h-1)
  2538  000138  642E               	cpfsgt	((c:_pwmCounter)),c
  2539  00013A  D001               	goto	i2u21_41
  2540  00013C  D001               	goto	i2u21_40
  2541  00013E                     i2u21_41:
  2542  00013E  D005               	goto	i2l1069
  2543  000140                     i2u21_40:
  2544                           	
  2545  000140                     i2l1067:
  2546  000140  6E01               	movwf	(??_isr+0+0)&0ffh,c
  2547  000142  0E00               	movlw	low(0)
  2548  000144  6E2E               	movwf	((c:_pwmCounter)),c
  2549  000146  5001               	movf	(??_isr+0+0)&0ffh,c,w
  2550  000148  D000               	goto	i2l1069
  2551                           	
  2552  00014A                     i2l218:
  2553                           	line	50
  2554                           	
  2555  00014A                     i2l1069:
  2556                           ;softPWM.c: 50: TMR2IF = 0;
  2557  00014A  929E               	bcf	c:(31985/8),(31985)&7	;volatile
  2558  00014C  D000               	goto	i2l1071
  2559                           	line	52
  2560                           	
  2561  00014E                     i2l205:
  2562                           	line	54
  2563                           	
  2564  00014E                     i2l1071:
  2565                           ;softPWM.c: 52: }
  2566                           ;softPWM.c: 54: if (SSPIF) {
  2567  00014E  A69E               	btfss	c:(31987/8),(31987)&7	;volatile
  2568  000150  D001               	goto	i2u22_41
  2569  000152  D001               	goto	i2u22_40
  2570  000154                     i2u22_41:
  2571  000154  D097               	goto	i2l234
  2572  000156                     i2u22_40:
  2573                           	line	55
  2574                           	
  2575  000156                     i2l1073:
  2576                           ;softPWM.c: 55: RB7 = 1;
  2577  000156  8E81               	bsf	c:(31759/8),(31759)&7	;volatile
  2578                           	line	56
  2579                           ;softPWM.c: 56: SSPIF = 0;
  2580  000158  969E               	bcf	c:(31987/8),(31987)&7	;volatile
  2581                           	line	57
  2582                           	
  2583  00015A                     i2l1075:
  2584                           ;softPWM.c: 57: v_sspstat = SSPSTAT & 0b00101101;
  2585  00015A  50C7               	movf	((c:4039)),c,w	;volatile
  2586  00015C  0B2D               	andlw	low(02Dh)
  2587  00015E  6E2F               	movwf	((c:_v_sspstat)),c
  2588                           	line	59
  2589                           ;softPWM.c: 59: if (v_sspstat == 0b00001001)
  2590  000160  502F               	movf	((c:_v_sspstat)),c,w
  2591  000162  0A09               	xorlw	9
  2592                           
  2593  000164  A4D8               	btfss	status,2
  2594  000166  D001               	goto	i2u23_41
  2595  000168  D001               	goto	i2u23_40
  2596  00016A                     i2u23_41:
  2597  00016A  D00F               	goto	i2l1091
  2598  00016C                     i2u23_40:
  2599                           	line	61
  2600                           	
  2601  00016C                     i2l1077:
  2602                           ;softPWM.c: 60: {
  2603                           ;softPWM.c: 61: i2c_buff_index = 0;
  2604  00016C  0E00               	movlw	high(0)
  2605  00016E  6E26               	movwf	((c:_i2c_buff_index+1)),c	;volatile
  2606  000170  0E00               	movlw	low(0)
  2607  000172  6E25               	movwf	((c:_i2c_buff_index)),c	;volatile
  2608                           	line	63
  2609                           	
  2610  000174                     i2l1079:
  2611                           ;softPWM.c: 63: SSPBUF;
  2612  000174  50C9               	movf	((c:4041)),c,w	;volatile
  2613                           	line	64
  2614                           	
  2615  000176                     i2l1081:
  2616                           ;softPWM.c: 64: if (SSPOV){
  2617  000176  ACC6               	btfss	c:(32310/8),(32310)&7	;volatile
  2618  000178  D001               	goto	i2u24_41
  2619  00017A  D001               	goto	i2u24_40
  2620  00017C                     i2u24_41:
  2621  00017C  D004               	goto	i2l1089
  2622  00017E                     i2u24_40:
  2623                           	line	65
  2624                           	
  2625  00017E                     i2l1083:
  2626                           ;softPWM.c: 65: SSPOV = 0;
  2627  00017E  9CC6               	bcf	c:(32310/8),(32310)&7	;volatile
  2628                           	line	66
  2629                           	
  2630  000180                     i2l1085:
  2631                           ;softPWM.c: 66: SSPBUF;
  2632  000180  50C9               	movf	((c:4041)),c,w	;volatile
  2633                           	line	67
  2634                           	
  2635  000182                     i2l1087:
  2636                           ;softPWM.c: 67: RB5 = 1;
  2637  000182  8A81               	bsf	c:(31757/8),(31757)&7	;volatile
  2638  000184  D000               	goto	i2l1089
  2639                           	line	68
  2640                           	
  2641  000186                     i2l221:
  2642                           	line	69
  2643                           	
  2644  000186                     i2l1089:
  2645                           ;softPWM.c: 68: }
  2646                           ;softPWM.c: 69: CKP = 1;
  2647  000186  88C6               	bsf	c:(32308/8),(32308)&7	;volatile
  2648                           	line	70
  2649                           ;softPWM.c: 70: }
  2650  000188  D07D               	goto	i2l234
  2651                           	line	71
  2652                           	
  2653  00018A                     i2l220:
  2654                           	
  2655  00018A                     i2l1091:
  2656                           ;softPWM.c: 71: else if ( v_sspstat == 0b00101001 )
  2657  00018A  502F               	movf	((c:_v_sspstat)),c,w
  2658  00018C  0A29               	xorlw	41
  2659                           
  2660  00018E  A4D8               	btfss	status,2
  2661  000190  D001               	goto	i2u25_41
  2662  000192  D001               	goto	i2u25_40
  2663  000194                     i2u25_41:
  2664  000194  D025               	goto	i2l1111
  2665  000196                     i2u25_40:
  2666                           	line	73
  2667                           	
  2668  000196                     i2l1093:
  2669                           ;softPWM.c: 72: {
  2670                           ;softPWM.c: 73: i2c_rx_buff[i2c_buff_index] = SSPBUF;
  2671  000196  0E27               	movlw	low((c:_i2c_rx_buff))	;volatile
  2672  000198  2425               	addwf	((c:_i2c_buff_index)),c,w	;volatile
  2673  00019A  6ED9               	movwf	c:fsr2l
  2674  00019C  6ADA               	clrf	1+c:fsr2l
  2675  00019E  0E00               	movlw	high((c:_i2c_rx_buff))	;volatile
  2676  0001A0  22DA               	addwfc	1+c:fsr2l
  2677  0001A2  CFC9 FFDF          	movff	(c:4041),indf2	;volatile
  2678                           
  2679                           	line	74
  2680                           	
  2681  0001A6                     i2l1095:
  2682                           ;softPWM.c: 74: if (SSPOV){
  2683  0001A6  ACC6               	btfss	c:(32310/8),(32310)&7	;volatile
  2684  0001A8  D001               	goto	i2u26_41
  2685  0001AA  D001               	goto	i2u26_40
  2686  0001AC                     i2u26_41:
  2687  0001AC  D004               	goto	i2l1103
  2688  0001AE                     i2u26_40:
  2689                           	line	75
  2690                           	
  2691  0001AE                     i2l1097:
  2692                           ;softPWM.c: 75: SSPOV = 0;
  2693  0001AE  9CC6               	bcf	c:(32310/8),(32310)&7	;volatile
  2694                           	line	76
  2695                           	
  2696  0001B0                     i2l1099:
  2697                           ;softPWM.c: 76: SSPBUF;
  2698  0001B0  50C9               	movf	((c:4041)),c,w	;volatile
  2699                           	line	77
  2700                           	
  2701  0001B2                     i2l1101:
  2702                           ;softPWM.c: 77: RB5 = 1;
  2703  0001B2  8A81               	bsf	c:(31757/8),(31757)&7	;volatile
  2704  0001B4  D000               	goto	i2l1103
  2705                           	line	78
  2706                           	
  2707  0001B6                     i2l224:
  2708                           	line	80
  2709                           	
  2710  0001B6                     i2l1103:
  2711                           ;softPWM.c: 78: }
  2712                           ;softPWM.c: 80: CKP = 1;
  2713  0001B6  88C6               	bsf	c:(32308/8),(32308)&7	;volatile
  2714                           	line	82
  2715                           	
  2716  0001B8                     i2l1105:
  2717                           ;softPWM.c: 82: if (++i2c_buff_index == sizeof(i2c_rx_buff)) {
  2718  0001B8  EE20  F025         	lfsr	2,(c:_i2c_buff_index)	;volatile
  2719  0001BC  2ADE               	incf	postinc2
  2720  0001BE  0E00               	movlw	0
  2721  0001C0  22DD               	addwfc	postdec2
  2722  0001C2  50DE               	movf	postinc2,w
  2723  0001C4  0A02               	xorlw	02h
  2724  0001C6  10DD               	iorwf	postdec2,w
  2725  0001C8  A4D8               	btfss	status,2
  2726  0001CA  D001               	goto	i2u27_41
  2727  0001CC  D001               	goto	i2u27_40
  2728  0001CE                     i2u27_41:
  2729  0001CE  D05A               	goto	i2l234
  2730  0001D0                     i2u27_40:
  2731                           	line	83
  2732                           	
  2733  0001D0                     i2l1107:
  2734                           ;softPWM.c: 83: i2c_buff_index = 0;
  2735  0001D0  0E00               	movlw	high(0)
  2736  0001D2  6E26               	movwf	((c:_i2c_buff_index+1)),c	;volatile
  2737  0001D4  0E00               	movlw	low(0)
  2738  0001D6  6E25               	movwf	((c:_i2c_buff_index)),c	;volatile
  2739                           	line	84
  2740                           	
  2741  0001D8                     i2l1109:
  2742                           ;softPWM.c: 84: newData = 1;
  2743  0001D8  0100               	movlb	(_newData/8) >> 8
  2744  0001DA  8033               	bsf	(_newData/8),c,(_newData)&7
  2745  0001DC  D053               	goto	i2l234
  2746                           	line	85
  2747                           	
  2748  0001DE                     i2l225:
  2749                           	line	86
  2750                           ;softPWM.c: 85: }
  2751                           ;softPWM.c: 86: }
  2752  0001DE  D052               	goto	i2l234
  2753                           	line	87
  2754                           	
  2755  0001E0                     i2l223:
  2756                           	
  2757  0001E0                     i2l1111:
  2758                           ;softPWM.c: 87: else if ( v_sspstat == 0b00001101 )
  2759  0001E0  502F               	movf	((c:_v_sspstat)),c,w
  2760  0001E2  0A0D               	xorlw	13
  2761                           
  2762  0001E4  A4D8               	btfss	status,2
  2763  0001E6  D001               	goto	i2u28_41
  2764  0001E8  D001               	goto	i2u28_40
  2765  0001EA                     i2u28_41:
  2766  0001EA  D01A               	goto	i2l1121
  2767  0001EC                     i2u28_40:
  2768                           	line	89
  2769                           	
  2770  0001EC                     i2l1113:
  2771                           ;softPWM.c: 88: {
  2772                           ;softPWM.c: 89: if (SSPBUF == SSPADD + 1){
  2773  0001EC  50C8               	movf	((c:4040)),c,w	;volatile
  2774  0001EE  6E01               	movwf	(??_isr+0+0)&0ffh,c
  2775  0001F0  6A02               	clrf	(??_isr+0+0+1)&0ffh,c
  2776                           
  2777  0001F2  0E01               	movlw	01h
  2778  0001F4  2601               	addwf	(??_isr+0+0),c
  2779  0001F6  0E00               	movlw	0
  2780  0001F8  2202               	addwfc	(??_isr+0+1),c
  2781  0001FA  50C9               	movf	((c:4041)),c,w	;volatile
  2782  0001FC  1801               	xorwf	(??_isr+0+0),c,w
  2783  0001FE  1002               	iorwf	(??_isr+0+1),c,w
  2784                           
  2785  000200  A4D8               	btfss	status,2
  2786  000202  D001               	goto	i2u29_41
  2787  000204  D001               	goto	i2u29_40
  2788  000206                     i2u29_41:
  2789  000206  D009               	goto	i2l228
  2790  000208                     i2u29_40:
  2791                           	line	90
  2792                           	
  2793  000208                     i2l1115:
  2794                           ;softPWM.c: 90: SSPBUF = i2c_tx_buff[0];
  2795  000208  C029  FFC9         	movff	(c:_i2c_tx_buff),(c:4041)	;volatile
  2796                           	line	91
  2797                           ;softPWM.c: 91: CKP=1;
  2798  00020C  88C6               	bsf	c:(32308/8),(32308)&7	;volatile
  2799                           	line	92
  2800                           	
  2801  00020E                     i2l1117:
  2802                           ;softPWM.c: 92: i2c_buff_index = 1;
  2803  00020E  0E00               	movlw	high(01h)
  2804  000210  6E26               	movwf	((c:_i2c_buff_index+1)),c	;volatile
  2805  000212  0E01               	movlw	low(01h)
  2806  000214  6E25               	movwf	((c:_i2c_buff_index)),c	;volatile
  2807                           	line	93
  2808                           	
  2809  000216                     i2l1119:
  2810                           ;softPWM.c: 93: SSPIF = 0;
  2811  000216  969E               	bcf	c:(31987/8),(31987)&7	;volatile
  2812                           	line	94
  2813                           ;softPWM.c: 94: }
  2814  000218  D035               	goto	i2l234
  2815                           	line	96
  2816                           	
  2817  00021A                     i2l228:
  2818                           ;softPWM.c: 96: else RB5 = 1;
  2819  00021A  8A81               	bsf	c:(31757/8),(31757)&7	;volatile
  2820  00021C  D033               	goto	i2l234
  2821                           	
  2822  00021E                     i2l229:
  2823                           	line	97
  2824                           ;softPWM.c: 97: }
  2825  00021E  D032               	goto	i2l234
  2826                           	line	98
  2827                           	
  2828  000220                     i2l227:
  2829                           	
  2830  000220                     i2l1121:
  2831                           ;softPWM.c: 98: else if (( v_sspstat == 0b00101100 )&&(!ACKSTAT))
  2832  000220  502F               	movf	((c:_v_sspstat)),c,w
  2833  000222  0A2C               	xorlw	44
  2834                           
  2835  000224  A4D8               	btfss	status,2
  2836  000226  D001               	goto	i2u30_41
  2837  000228  D001               	goto	i2u30_40
  2838  00022A                     i2u30_41:
  2839  00022A  D026               	goto	i2l231
  2840  00022C                     i2u30_40:
  2841                           	
  2842  00022C                     i2l1123:
  2843  00022C  BCC5               	btfsc	c:(32302/8),(32302)&7	;volatile
  2844  00022E  D001               	goto	i2u31_41
  2845  000230  D001               	goto	i2u31_40
  2846  000232                     i2u31_41:
  2847  000232  D022               	goto	i2l231
  2848  000234                     i2u31_40:
  2849                           	line	100
  2850                           	
  2851  000234                     i2l1125:
  2852                           ;softPWM.c: 99: {
  2853                           ;softPWM.c: 100: SSPBUF = i2c_tx_buff[i2c_buff_index];
  2854  000234  0E29               	movlw	low((c:_i2c_tx_buff))
  2855  000236  2425               	addwf	((c:_i2c_buff_index)),c,w	;volatile
  2856  000238  6ED9               	movwf	c:fsr2l
  2857  00023A  6ADA               	clrf	1+c:fsr2l
  2858  00023C  0E00               	movlw	high((c:_i2c_tx_buff))
  2859  00023E  22DA               	addwfc	1+c:fsr2l
  2860  000240  50DF               	movf	indf2,w
  2861  000242  6EC9               	movwf	((c:4041)),c	;volatile
  2862                           	line	102
  2863                           	
  2864  000244                     i2l1127:
  2865                           ;softPWM.c: 102: unsigned char size = sizeof(i2c_tx_buff);
  2866  000244  6E01               	movwf	(??_isr+0+0)&0ffh,c
  2867  000246  0E02               	movlw	low(02h)
  2868  000248  6E12               	movwf	((c:isr@size)),c
  2869  00024A  5001               	movf	(??_isr+0+0)&0ffh,c,w
  2870                           	line	103
  2871                           	
  2872  00024C                     i2l1129:
  2873                           ;softPWM.c: 103: if (++i2c_buff_index == sizeof(i2c_tx_buff)) {
  2874  00024C  EE20  F025         	lfsr	2,(c:_i2c_buff_index)	;volatile
  2875  000250  2ADE               	incf	postinc2
  2876  000252  0E00               	movlw	0
  2877  000254  22DD               	addwfc	postdec2
  2878  000256  50DE               	movf	postinc2,w
  2879  000258  0A02               	xorlw	02h
  2880  00025A  10DD               	iorwf	postdec2,w
  2881  00025C  A4D8               	btfss	status,2
  2882  00025E  D001               	goto	i2u32_41
  2883  000260  D001               	goto	i2u32_40
  2884  000262                     i2u32_41:
  2885  000262  D010               	goto	i2l234
  2886  000264                     i2u32_40:
  2887                           	line	104
  2888                           	
  2889  000264                     i2l1131:
  2890                           ;softPWM.c: 104: i2c_buff_index = 0;
  2891  000264  0E00               	movlw	high(0)
  2892  000266  6E26               	movwf	((c:_i2c_buff_index+1)),c	;volatile
  2893  000268  0E00               	movlw	low(0)
  2894  00026A  6E25               	movwf	((c:_i2c_buff_index)),c	;volatile
  2895                           	line	105
  2896                           ;softPWM.c: 105: SSPBUF = 0;
  2897  00026C  0E00               	movlw	low(0)
  2898  00026E  6EC9               	movwf	((c:4041)),c	;volatile
  2899                           	line	106
  2900                           	
  2901  000270                     i2l1133:
  2902                           ;softPWM.c: 106: CKP = 1;
  2903  000270  88C6               	bsf	c:(32308/8),(32308)&7	;volatile
  2904                           	line	107
  2905                           	
  2906  000272                     i2l1135:
  2907                           ;softPWM.c: 107: SSPIF = 0;
  2908  000272  969E               	bcf	c:(31987/8),(31987)&7	;volatile
  2909  000274  D007               	goto	i2l234
  2910                           	line	108
  2911                           	
  2912  000276                     i2l232:
  2913                           	line	109
  2914                           ;softPWM.c: 108: }
  2915                           ;softPWM.c: 109: }
  2916  000276  D006               	goto	i2l234
  2917                           	line	110
  2918                           	
  2919  000278                     i2l231:
  2920                           	line	112
  2921                           ;softPWM.c: 110: else
  2922                           ;softPWM.c: 111: {
  2923                           ;softPWM.c: 112: CKP=1;
  2924  000278  88C6               	bsf	c:(32308/8),(32308)&7	;volatile
  2925  00027A  D004               	goto	i2l234
  2926                           	line	113
  2927                           	
  2928  00027C                     i2l233:
  2929  00027C  D003               	goto	i2l234
  2930                           	
  2931  00027E                     i2l230:
  2932  00027E  D002               	goto	i2l234
  2933                           	
  2934  000280                     i2l226:
  2935  000280  D001               	goto	i2l234
  2936                           	
  2937  000282                     i2l222:
  2938  000282  D000               	goto	i2l234
  2939                           	line	114
  2940                           	
  2941  000284                     i2l219:
  2942                           	line	115
  2943                           	
  2944  000284                     i2l234:
  2945  000284  C011  FFF5         	movff	??_isr+16,tablat+0
  2946  000288  C010  FFF8         	movff	??_isr+15,tblptru+0
  2947  00028C  C00F  FFF7         	movff	??_isr+14,tblptrh+0
  2948  000290  C00E  FFF6         	movff	??_isr+13,tblptrl+0
  2949  000294  C00D  FFF4         	movff	??_isr+12,prodh+0
  2950  000298  C00C  FFF3         	movff	??_isr+11,prodl+0
  2951  00029C  C00B  FFDA         	movff	??_isr+10,fsr2h+0
  2952  0002A0  C00A  FFD9         	movff	??_isr+9,fsr2l+0
  2953  0002A4  C009  FFE2         	movff	??_isr+8,fsr1h+0
  2954  0002A8  C008  FFE1         	movff	??_isr+7,fsr1l+0
  2955  0002AC  C007  FFEA         	movff	??_isr+6,fsr0h+0
  2956  0002B0  C006  FFE9         	movff	??_isr+5,fsr0l+0
  2957  0002B4  C005  FFFB         	movff	??_isr+4,pclat+1
  2958  0002B8  C004  FFFA         	movff	??_isr+3,pclat+0
  2959  0002BC  0011               	retfie f
  2960                           	opt stack 0
  2961                           GLOBAL	__end_of_isr
  2962  0002BE                     	__end_of_isr:
  2963                           	signat	_isr,88
  2964                           	GLOBAL	__activetblptr
  2965  0000                     __activetblptr	EQU	0
  2966                           	psect	intsave_regs,class=BIGRAM,space=1
  2967                           psect	intcode
  2968                           	PSECT	rparam,class=COMRAM,space=1
  2969                           	GLOBAL	__Lrparam
  2970                           	FNCONF	rparam,??,?
  2971                           GLOBAL	__Lparam, __Hparam
  2972                           GLOBAL	__Lrparam, __Hrparam
  2973  0000                     __Lparam	EQU	__Lrparam
  2974  0000                     __Hparam	EQU	__Hrparam


Data Sizes:
    Strings     0
    Constant    0
    Data        3
    BSS         23
    Persistent  0
    Stack       0

Auto Spaces:
    Space          Size  Autos    Used
    COMRAM          127     24      51
    BANK0           128      0       0
    BANK1           256      0       0

Pointer List with Targets:

    None.

Critical Paths under _main in COMRAM

    _main->_readADC
    _configSystem->_setupOsc

Critical Paths under _isr in COMRAM

    None.

Critical Paths under _main in BANK0

    None.

Critical Paths under _isr in BANK0

    None.

Critical Paths under _main in BANK1

    None.

Critical Paths under _isr in BANK1

    None.

Call Graph Tables:

 ---------------------------------------------------------------------------------
 (Depth) Function   	        Calls       Base Space   Used Autos Params    Refs
 ---------------------------------------------------------------------------------
 (0) _main                                                 2     2      0      45
                                             22 COMRAM     2     2      0
                       _configSystem
                      _configSoftPWM
                        _configTimer
                          _configI2C
                            _readADC
 ---------------------------------------------------------------------------------
 (1) _configSystem                                         0     0      0       0
                           _setupOsc
 ---------------------------------------------------------------------------------
 (2) _setupOsc                                             1     1      0       0
                                             18 COMRAM     1     1      0
 ---------------------------------------------------------------------------------
 (1) _configI2C                                            0     0      0       0
 ---------------------------------------------------------------------------------
 (1) _configSoftPWM                                        0     0      0       0
 ---------------------------------------------------------------------------------
 (1) _configTimer                                          0     0      0       0
 ---------------------------------------------------------------------------------
 (1) _readADC                                              4     4      0      45
                                             18 COMRAM     4     4      0
 ---------------------------------------------------------------------------------
 Estimated maximum stack depth 2
 ---------------------------------------------------------------------------------
 (Depth) Function   	        Calls       Base Space   Used Autos Params    Refs
 ---------------------------------------------------------------------------------
 (3) _isr                                                 18    18      0       0
                                              0 COMRAM    18    18      0
 ---------------------------------------------------------------------------------
 Estimated maximum stack depth 3
 ---------------------------------------------------------------------------------

 Call Graph Graphs:

 _main (ROOT)
   _configSystem
     _setupOsc
   _configSoftPWM
   _configTimer
   _configI2C
   _readADC

 _isr (ROOT)

 Address spaces:
Name               Size   Autos  Total    Cost      Usage
BIGRAM             1FF      0       0       8        0.0%
EEDATA             100      0       0       0        0.0%
BITBANK1           100      0       0       5        0.0%
BANK1              100      0       0       6        0.0%
BITBANK0            80      0       0       3        0.0%
BANK0               80      0       0       4        0.0%
BITCOMRAM           7F      0       1       0        0.8%
COMRAM              7F     18      33       1       40.2%
BITSFR               0      0       0      40        0.0%
SFR                  0      0       0      40        0.0%
STACK                0      0       2       2        0.0%
NULL                 0      0       0       0        0.0%
ABS                  0      0      33       7        0.0%
DATA                 0      0      35       9        0.0%
CODE                 0      0       0       0        0.0%


HI-TECH Software PICC-18 Macro Assembler V9.80 build 11162 
Symbol Table                                                                                   Sun Apr 22 22:34:36 2012

                    l81 0450                      l90 04D8                      l82 0450  
                    l83 045A                      l84 0470                      l87 0498  
                    u10 0458                      u11 0456                     l111 02D4  
                   l112 03CA                     l120 0378                     l113 03A0  
                   l121 037E                     l122 0384                     l114 02E2  
                   l123 038A                     l115 0306                     l300 0416  
                   l124 0392                     l116 032A                     l117 03C8  
                   l125 0398                     l126 03CC                     l118 0330  
                   l127 03CE                     l119 0354                     l240 04C4  
                   l128 03CE                     l237 04B0                     l297 03D6  
                   l298 03D6                     l299 03DE                     l901 048E  
                   l911 04CC                     l903 0492                     l913 04D0  
                   l905 0494                     l915 04D2                     l907 0496  
                   l917 04D4                     l909 04C6                     l881 045A  
                   l883 046A                     l891 047A                     l971 02D4  
                   l963 02C2                     l885 046C                     l893 047E  
                   l981 0306                     l973 02E0                     l965 02C6  
                   l879 044A                     l895 0482                     l887 0472  
                   l991 034A                     l983 0320                     l975 02E2  
                   l967 02CA                     l897 0486                     l889 0476  
                   l993 0354                     l985 032A                     l977 02F0  
                   l969 02CE                     _CKP 007E34                     l899 048A  
                   l995 036E                     l987 0330                     l979 02FC  
                   l997 0378                     l989 033E                     l999 038A  
                   _RA0 007C00                     _RA1 007C01                     _RA2 007C02  
                   _RB1 007C09                     _RA3 007C03                     _RA4 007C04  
                   _RA6 007C06                     _RB5 007C0D                     _RA7 007C07  
                   _RC5 007C15                     _RB7 007C0F                     u100 02DE  
                   u101 02DC                     u110 02F0                     u111 02EE  
                   u120 033E                     u121 033C                     u130 03DE  
                   u131 03DC                     _PR2 000FCB                     _isr 0008  
                   wreg 000FE8                    l1001 039E                    l1011 04A8  
                  l1003 03A0                    l1021 03D2                    l1013 04AA  
                  l1005 049A                    l1031 0412                    l1023 03E4  
                  l1015 04AC                    l1007 049E                    l1033 0416  
                  l1025 03EA                    l1017 04AE                    l1009 04A6  
                  l1027 03F2                    l1019 04B2                    l1029 040E  
                  ?_isr 0001                    u2157 0460                    _IOFS 007E9A  
                  _PEIE 007F96          _i2c_buff_index 0025                    _main 02C2  
                  _down 002C                    fsr0h 000FEA                    fsr1h 000FE2  
                  fsr0l 000FE9                    fsr2h 000FDA                    fsr1l 000FE1  
                  indf2 000FDF                    fsr2l 000FD9                    pclat 000FFA  
        ??_configSystem 0014                    prodh 000FF4                    prodl 000FF3  
                  start 02BE                   ??_isr 0001                   ?_main 0001  
                 i2l210 00BE                   i2l211 00C2                   i2l220 018A  
                 i2l212 00E4                   i2l221 0186                   i2l205 014E  
                 i2l213 00E8                   i2l222 0282                   i2l230 027E  
                 i2l214 010A                   i2l206 0072                   i2l231 0278  
                 i2l223 01E0                   i2l215 010E                   i2l207 0076  
                 i2l232 0276                   i2l224 01B6                   i2l216 0130  
                 i2l208 0098                   i2l233 027C                   i2l225 01DE  
                 i2l217 0134                   i2l209 009C                   i2l226 0280  
                 i2l234 0284                   i2l218 014A                   i2l219 0284  
                 i2l227 0220                   i2l228 021A                   i2l229 021E  
                 _PLLEN 007CDE                   _PORTA 000F80                   _PORTB 000F81  
                 _PORTC 000F82                   _TRISA 000F92                   _TRISB 000F93  
                 _TRISC 000F94                   _SSPIF 007CF3                   _SSPOV 007E36  
       ??_configSoftPWM 0013         __end_of_readADC 0418          __pbitbssCOMRAM 0198  
                 tablat 000FF5                   status 000FD8            __end_of_main 03D2  
                ??_main 0017           __activetblptr 000000                  _ADCON0 000FC2  
                _ADCON1 000FC1                  _ADCON2 000FC0                  _ADRESH 000FC4  
                _ADRESL 000FC3                  i2l1101 01B2                  i2l1103 01B6  
                i2l1111 01E0                  i2l1113 01EC                  i2l1121 0220  
                i2l1105 01B8                  i2l1041 006E                  i2l1131 0264  
                i2l1123 022C                  i2l1115 0208                  i2l1107 01D0  
                i2l1051 00C2                  i2l1043 0076                  i2l1035 0040  
                i2l1133 0270                  i2l1125 0234                  i2l1117 020E  
                i2l1109 01D8                  i2l1061 012C                  i2l1053 00E0  
                i2l1045 0094                  i2l1037 0048                  i2l1135 0272  
                i2l1127 0244                  i2l1119 0216                  i2l1063 0134  
                i2l1055 00E8                  i2l1047 009C                  i2l1039 0050  
                i2l1071 014E                  i2l1129 024C                  i2l1081 0176  
                i2l1073 0156                  i2l1065 0136                  i2l1057 0106  
                i2l1049 00BA                  i2l1083 017E                  i2l1091 018A  
                i2l1075 015A                  i2l1067 0140                  i2l1059 010E  
                i2l1093 0196                  i2l1085 0180                  i2l1077 016C  
                i2l1069 014A                  i2l1095 01A6                  i2l1087 0182  
                i2l1079 0174                  i2l1097 01AE                  i2l1089 0186  
                i2l1099 01B0                  _OSCCON 000FD3                  _TMR0IE 007F95  
                _TMR2IE 007CE9                  _TMR2IF 007CF1                  _WDTCON 000FD1  
                _SSPADD 000FC8                  _SSPBUF 000FC9    __size_of_configTimer 0014  
                clear_0 0420               ??_readADC 0013            __pdataCOMRAM 0030  
  __end_of_configSystem 049A        __end_of_setupOsc 0472                  tblptrh 000FF7  
                tblptrl 000FF6                  tblptru 000FF8              __accesstop 0080  
        __pcstackCOMRAM 0001             _i2c_rx_buff 0027             _i2c_tx_buff 0029  
    __size_of_configI2C 0014                 _ACKSTAT 007E2E                 i2u20_40 012C  
               i2u20_41 012A                 i2u21_40 0140                 i2u21_41 013E  
               i2u30_40 022C                 i2u22_40 0156                 i2u14_40 0048  
               i2u30_41 022A                 i2u22_41 0154                 i2u14_41 0046  
               i2u31_40 0234                 i2u23_40 016C                 i2u15_40 006E  
               i2u31_41 0232                 i2u23_41 016A                 i2u15_41 006C  
               i2u32_40 0264                 i2u24_40 017E                 i2u16_40 0094  
               i2u32_41 0262                 i2u24_41 017C                 i2u16_41 0092  
               i2u25_40 0196                 i2u17_40 00BA                 i2u25_41 0194  
               i2u17_41 00B8                 i2u26_40 01AE                 i2u18_40 00E0  
               i2u26_41 01AC                 i2u18_41 00DE                 i2u27_40 01D0  
               i2u19_40 0106                 i2u27_41 01CE                 i2u19_41 0104  
               i2u28_40 01EC                 i2u28_41 01EA                 i2u29_40 0208  
               i2u29_41 0206                 _SSPCON1 000FC6                 _SSPCON2 000FC5  
               _SSPSTAT 000FC7                 __Hparam 0000                 __Lparam 0000  
     __end_of_configI2C 04DA               ?_setupOsc 0001   __size_of_configSystem 0028  
               __pcinit 0418              _dutyCycle1 0019              _dutyCycle2 001B  
            _dutyCycle3 001D              _dutyCycle4 001F              _dutyCycle5 0021  
            _dutyCycle6 0023                 __ramtop 0200           readADC@result 0015  
               __ptext0 02C2                 __ptext1 0472                 __ptext2 044A  
               __ptext3 04C6                 __ptext4 049A                 __ptext5 04B2  
               __ptext6 03D2               _T0CONbits 000FD5                 _readADC 03D2  
               _maxDuty 0030                 _counter 002B                 _newData 0198  
             _T2CONbits 000FCA            __size_of_isr 02B6   __end_of_configSoftPWM 04B2  
  end_of_initialization 0444                 isr@size 0012              _potEnabled 002D  
          _configSystem 0472              ??_setupOsc 0013                 postdec2 000FDD  
               postinc0 000FEE                 postinc2 000FDE              _pwmCounter 002E  
         ??_configTimer 0013              _stressTest 0032           __pidataCOMRAM 04DA  
   start_initialization 0418             __end_of_isr 02BE     __end_of_configTimer 04C6  
           __pbssCOMRAM 0019               __pintcode 0008               _configI2C 04C6  
     __size_of_setupOsc 0028                ?_readADC 0001             _configTimer 04B2  
              _GO_nDONE 007E11              ?_configI2C 0001               _v_sspstat 002F  
              __Hrparam 0000                __Lrparam 0000  __size_of_configSoftPWM 0018  
      __size_of_readADC 0046           __size_of_main 0110                _setupOsc 044A  
           ??_configI2C 0013              _INTCONbits 000FF2                intlevel2 0000  
         _configSoftPWM 049A          ?_configSoftPWM 0001           ?_configSystem 0001  
          ?_configTimer 0001  
